ARM GAS  C:\Users\embedded\AppData\Local\Temp\cc706Tzv.s 			page 1


   1              		.cpu arm7tdmi
   2              		.fpu softvfp
   3              		.eabi_attribute 20, 1
   4              		.eabi_attribute 21, 1
   5              		.eabi_attribute 23, 3
   6              		.eabi_attribute 24, 1
   7              		.eabi_attribute 25, 1
   8              		.eabi_attribute 26, 1
   9              		.eabi_attribute 30, 4
  10              		.eabi_attribute 34, 0
  11              		.eabi_attribute 18, 4
  12              		.arm
  13              		.syntax divided
  14              		.file	"irq_handler.c"
  15              		.text
  16              	.Ltext0:
  17              		.cfi_sections	.debug_frame
  18              		.global	__aeabi_uidivmod
  19              		.global	__aeabi_uidiv
  20              		.align	2
  21              		.global	IRQ_Test
  22              		.type	IRQ_Test, %function
  23              	IRQ_Test:
  24              	.LFB0:
  25              		.file 1 "irq_handler.c"
   1:irq_handler.c **** /*************************************************************************************
   2:irq_handler.c ****  *
   3:irq_handler.c ****  * @Description:
   4:irq_handler.c ****  * Przykładowa procedura obsługi przerwania dostosowania do 
   5:irq_handler.c ****  * obsługi przerwań wektoryzowanych.
   6:irq_handler.c ****  * Procedura ta przełącza stan diody P0.9.
   7:irq_handler.c ****  * 
   8:irq_handler.c ****  * 
   9:irq_handler.c ****  * @Authors: Michał Morawski, 
  10:irq_handler.c ****  *           Daniel Arendt, 
  11:irq_handler.c ****  *           Przemysław Ignaciuk,
  12:irq_handler.c ****  *           Marcin Kwapisz
  13:irq_handler.c ****  *
  14:irq_handler.c ****  * @Change log:
  15:irq_handler.c ****  *           2016.12.01: Wersja oryginalna.
  16:irq_handler.c ****  *
  17:irq_handler.c ****  ******************************************************************************/
  18:irq_handler.c **** 
  19:irq_handler.c **** #include "../general.h"
  20:irq_handler.c **** #include <lpc2xxx.h>
  21:irq_handler.c **** #include "irq_handler.h"
  22:irq_handler.c **** #include "../timer.h"
  23:irq_handler.c **** 
  24:irq_handler.c **** #include "../Common_Def.h"
  25:irq_handler.c **** 
  26:irq_handler.c **** int step = 0;
  27:irq_handler.c **** 
  28:irq_handler.c **** 
  29:irq_handler.c **** void IRQ_Test(void)
  30:irq_handler.c **** {
  26              		.loc 1 30 0
  27              		.cfi_startproc
ARM GAS  C:\Users\embedded\AppData\Local\Temp\cc706Tzv.s 			page 2


  28              		@ Interrupt Service Routine.
  29              		@ args = 0, pretend = 0, frame = 0
  30              		@ frame_needed = 0, uses_anonymous_args = 0
  31 0000 04E04EE2 		sub	lr, lr, #4
  32 0004 3F502DE9 		stmfd	sp!, {r0, r1, r2, r3, r4, r5, ip, lr}
  33              	.LCFI0:
  34              		.cfi_def_cfa_offset 32
  35              		.cfi_offset 0, -32
  36              		.cfi_offset 1, -28
  37              		.cfi_offset 2, -24
  38              		.cfi_offset 3, -20
  39              		.cfi_offset 4, -16
  40              		.cfi_offset 5, -12
  41              		.cfi_offset 12, -8
  42              		.cfi_offset 14, -4
  31:irq_handler.c **** 	int sk1 = (int)((temp/2)/10);
  43              		.loc 1 31 0
  44 0008 98309FE5 		ldr	r3, .L8
  45 000c B050D3E1 		ldrh	r5, [r3]
  46              	.LVL0:
  32:irq_handler.c **** 	int sk2 = (int)((temp/2)%10);
  33:irq_handler.c **** 
  34:irq_handler.c **** 	int t=(sk1*10) + sk2;
  35:irq_handler.c **** 
  36:irq_handler.c **** 	if (t>=28)
  47              		.loc 1 36 0
  48 0010 0A10A0E3 		mov	r1, #10
  49 0014 A500A0E1 		mov	r0, r5, lsr #1
  50 0018 FEFFFFEB 		bl	__aeabi_uidivmod
  51              	.LVL1:
  52 001c 0118A0E1 		mov	r1, r1, asl #16
  53 0020 2148A0E1 		mov	r4, r1, lsr #16
  54 0024 0500A0E1 		mov	r0, r5
  55 0028 1410A0E3 		mov	r1, #20
  56 002c FEFFFFEB 		bl	__aeabi_uidiv
  57              	.LVL2:
  58 0030 0A30A0E3 		mov	r3, #10
  59 0034 0008A0E1 		mov	r0, r0, asl #16
  60 0038 2018A0E1 		mov	r1, r0, lsr #16
  61 003c 934121E0 		mla	r1, r3, r1, r4
  62 0040 1B0051E3 		cmp	r1, #27
  63 0044 100000DA 		ble	.L2
  64              	.LBB2:
  37:irq_handler.c **** 	{
  38:irq_handler.c **** 	     static tU32 stepmotorSteps[4] = {0x00201000, 0x00200000, 0x00000000, 0x00001000};  //P0.21 an
  39:irq_handler.c **** 
  40:irq_handler.c **** 	     IODIR0 |= 0x00201000;
  65              		.loc 1 40 0
  66 0048 5C309FE5 		ldr	r3, .L8+4
  67 004c 082093E5 		ldr	r2, [r3, #8]
  68 0050 022682E3 		orr	r2, r2, #2097152
  69 0054 012A82E3 		orr	r2, r2, #4096
  70 0058 082083E5 		str	r2, [r3, #8]
  41:irq_handler.c **** 
  42:irq_handler.c **** 	     step++;
  71              		.loc 1 42 0
  72 005c 4C209FE5 		ldr	r2, .L8+8
ARM GAS  C:\Users\embedded\AppData\Local\Temp\cc706Tzv.s 			page 3


  73 0060 001092E5 		ldr	r1, [r2]
  74 0064 011081E2 		add	r1, r1, #1
  43:irq_handler.c **** 	     if(step == 4) step = 0;
  75              		.loc 1 43 0
  76 0068 040051E3 		cmp	r1, #4
  77 006c 0010A003 		moveq	r1, #0
  78 0070 001082E5 		str	r1, [r2]
  44:irq_handler.c **** 
  45:irq_handler.c **** 		 IOCLR0 = stepmotorSteps[0];
  79              		.loc 1 45 0
  80 0074 38109FE5 		ldr	r1, .L8+12
  81 0078 0C1083E5 		str	r1, [r3, #12]
  46:irq_handler.c **** 		 IOSET0 = stepmotorSteps[step];
  82              		.loc 1 46 0
  83 007c 001092E5 		ldr	r1, [r2]
  84 0080 30209FE5 		ldr	r2, .L8+16
  85 0084 012192E7 		ldr	r2, [r2, r1, asl #2]
  86 0088 042083E5 		str	r2, [r3, #4]
  87              	.L2:
  88              	.LBE2:
  47:irq_handler.c **** 	}
  48:irq_handler.c **** 
  49:irq_handler.c **** 		 T0IR = TIMER_MR0_INT;
  89              		.loc 1 49 0
  90 008c 0120A0E3 		mov	r2, #1
  91 0090 24309FE5 		ldr	r3, .L8+20
  92 0094 002083E5 		str	r2, [r3]
  50:irq_handler.c **** 		 VICVectAddr = 0x00;
  93              		.loc 1 50 0
  94 0098 0020A0E3 		mov	r2, #0
  95 009c 0030E0E3 		mvn	r3, #0
  96 00a0 CF2F03E5 		str	r2, [r3, #-4047]
  97 00a4 3F90FDE8 		ldmfd	sp!, {r0, r1, r2, r3, r4, r5, ip, pc}^
  98              	.L9:
  99              		.align	2
 100              	.L8:
 101 00a8 00000000 		.word	temp
 102 00ac 008002E0 		.word	-536707072
 103 00b0 00000000 		.word	.LANCHOR0
 104 00b4 00102000 		.word	2101248
 105 00b8 00000000 		.word	.LANCHOR1
 106 00bc 004000E0 		.word	-536854528
 107              		.cfi_endproc
 108              	.LFE0:
 109              		.size	IRQ_Test, .-IRQ_Test
 110              		.global	step
 111              		.comm	temp,2,2
 112              		.section	.rodata
 113              		.align	2
 114              		.set	.LANCHOR1,. + 0
 115              		.type	stepmotorSteps.4185, %object
 116              		.size	stepmotorSteps.4185, 16
 117              	stepmotorSteps.4185:
 118 0000 00102000 		.word	2101248
 119 0004 00002000 		.word	2097152
 120 0008 00000000 		.word	0
 121 000c 00100000 		.word	4096
ARM GAS  C:\Users\embedded\AppData\Local\Temp\cc706Tzv.s 			page 4


 122              		.bss
 123              		.align	2
 124              		.set	.LANCHOR0,. + 0
 125              		.type	step, %object
 126              		.size	step, 4
 127              	step:
 128 0000 00000000 		.space	4
 129              		.text
 130              	.Letext0:
 131              		.file 2 "../general.h"
 132              		.file 3 "irq_handler.h"