ARM GAS  C:\Users\embedded\AppData\Local\Temp\ccWVz84i.s 			page 1


   1              		.syntax unified
   2              		.cpu arm7tdmi
   3              		.fpu softvfp
   4              		.eabi_attribute 20, 1
   5              		.eabi_attribute 21, 1
   6              		.eabi_attribute 23, 3
   7              		.eabi_attribute 24, 1
   8              		.eabi_attribute 25, 1
   9              		.eabi_attribute 26, 1
  10              		.eabi_attribute 30, 4
  11              		.eabi_attribute 34, 0
  12              		.eabi_attribute 18, 4
  13              		.thumb
  14              		.syntax unified
  15              		.file	"delays.c"
  16              		.text
  17              	.Ltext0:
  18              		.cfi_sections	.debug_frame
  19              		.align	1
  20              		.global	delay_sec
  21              		.code	16
  22              		.thumb_func
  23              		.type	delay_sec, %function
  24              	delay_sec:
  25              	.LFB0:
  26              		.file 1 "delays.c"
   1:delays.c      **** /*
   2:delays.c      ****  * delays.c
   3:delays.c      ****  *
   4:delays.c      ****  *  Created on: Jan 5, 2018
   5:delays.c      ****  *      Author: embedded
   6:delays.c      ****  */
   7:delays.c      **** 
   8:delays.c      **** #include "delays.h"
   9:delays.c      **** 
  10:delays.c      **** void delay_sec (tU32 seconds)
  11:delays.c      **** {
  27              		.loc 1 11 0
  28              		.cfi_startproc
  29              		@ Function supports interworking.
  30              		@ args = 0, pretend = 0, frame = 0
  31              		@ frame_needed = 0, uses_anonymous_args = 0
  32              		@ link register save eliminated.
  33              	.LVL0:
  12:delays.c      ****   T1TCR = TIMER_RESET;                    //Zatrzymaj i zresetuj
  34              		.loc 1 12 0
  35 0000 0222     		movs	r2, #2
  36 0002 094B     		ldr	r3, .L5
  13:delays.c      ****   T1PR  = PERIPHERAL_CLOCK-1;             //jednostka w preskalerze
  37              		.loc 1 13 0
  38 0004 0949     		ldr	r1, .L5+4
  12:delays.c      ****   T1TCR = TIMER_RESET;                    //Zatrzymaj i zresetuj
  39              		.loc 1 12 0
  40 0006 1A60     		str	r2, [r3]
  41              		.loc 1 13 0
  42 0008 094A     		ldr	r2, .L5+8
  43 000a 1160     		str	r1, [r2]
ARM GAS  C:\Users\embedded\AppData\Local\Temp\ccWVz84i.s 			page 2


  14:delays.c      ****   T1MR0 = seconds;
  15:delays.c      ****   T1IR  = TIMER_ALL_INT;                  //Resetowanie flag przerwań
  44              		.loc 1 15 0
  45 000c FF21     		movs	r1, #255
  14:delays.c      ****   T1MR0 = seconds;
  46              		.loc 1 14 0
  47 000e 094A     		ldr	r2, .L5+12
  48 0010 1060     		str	r0, [r2]
  49              		.loc 1 15 0
  50 0012 094A     		ldr	r2, .L5+16
  51 0014 1160     		str	r1, [r2]
  16:delays.c      ****   T1MCR = MR0_S;                          //Licz do wartości w MR0 i zatrzymaj się
  52              		.loc 1 16 0
  53 0016 094A     		ldr	r2, .L5+20
  54 0018 FB39     		subs	r1, r1, #251
  55 001a 1160     		str	r1, [r2]
  17:delays.c      ****   T1TCR = TIMER_RUN;                      //Uruchom timer
  56              		.loc 1 17 0
  57 001c 0122     		movs	r2, #1
  58 001e 1A60     		str	r2, [r3]
  59              	.L2:
  18:delays.c      **** 
  19:delays.c      ****   // sprawdź czy timer działa
  20:delays.c      ****   // nie ma wpisanego ogranicznika liczby pętli, ze względu na charakter procedury
  21:delays.c      ****   while (T1TCR & TIMER_RUN)
  60              		.loc 1 21 0 discriminator 1
  61 0020 1968     		ldr	r1, [r3]
  62 0022 1142     		tst	r1, r2
  63 0024 FCD1     		bne	.L2
  22:delays.c      ****   {
  23:delays.c      ****   }
  24:delays.c      **** }
  64              		.loc 1 24 0
  65              		@ sp needed
  66 0026 7047     		bx	lr
  67              	.L6:
  68              		.align	2
  69              	.L5:
  70 0028 048000E0 		.word	-536838140
  71 002c FF869303 		.word	59999999
  72 0030 0C8000E0 		.word	-536838132
  73 0034 188000E0 		.word	-536838120
  74 0038 008000E0 		.word	-536838144
  75 003c 148000E0 		.word	-536838124
  76              		.cfi_endproc
  77              	.LFE0:
  78              		.size	delay_sec, .-delay_sec
  79              		.global	__aeabi_lmul
  80              		.global	__aeabi_uldivmod
  81              		.align	1
  82              		.global	delay_ms
  83              		.code	16
  84              		.thumb_func
  85              		.type	delay_ms, %function
  86              	delay_ms:
  87              	.LFB1:
  25:delays.c      **** 
ARM GAS  C:\Users\embedded\AppData\Local\Temp\ccWVz84i.s 			page 3


  26:delays.c      **** void delay_ms (tU32 milisec)
  27:delays.c      **** {
  88              		.loc 1 27 0
  89              		.cfi_startproc
  90              		@ Function supports interworking.
  91              		@ args = 0, pretend = 0, frame = 0
  92              		@ frame_needed = 0, uses_anonymous_args = 0
  93              	.LVL1:
  28:delays.c      **** 	  T1TCR = TIMER_RESET;                    //Zatrzymaj i zresetuj
  94              		.loc 1 28 0
  95 0040 0223     		movs	r3, #2
  29:delays.c      **** 	  T1PR  = 0;                              //Preskaler nieużywany
  96              		.loc 1 29 0
  97 0042 0021     		movs	r1, #0
  27:delays.c      **** 	  T1TCR = TIMER_RESET;                    //Zatrzymaj i zresetuj
  98              		.loc 1 27 0
  99 0044 10B5     		push	{r4, lr}
 100              	.LCFI0:
 101              		.cfi_def_cfa_offset 8
 102              		.cfi_offset 4, -8
 103              		.cfi_offset 14, -4
  28:delays.c      **** 	  T1TCR = TIMER_RESET;                    //Zatrzymaj i zresetuj
 104              		.loc 1 28 0
 105 0046 0E4C     		ldr	r4, .L10
 106 0048 2360     		str	r3, [r4]
 107              		.loc 1 29 0
 108 004a 0E4B     		ldr	r3, .L10+4
  30:delays.c      **** 	  T1MR0 = ((tU64)milisec)*((tU64)PERIPHERAL_CLOCK)/1000;
 109              		.loc 1 30 0
 110 004c 0E4A     		ldr	r2, .L10+8
  29:delays.c      **** 	  T1PR  = 0;                              //Preskaler nieużywany
 111              		.loc 1 29 0
 112 004e 1960     		str	r1, [r3]
 113              		.loc 1 30 0
 114 0050 0023     		movs	r3, #0
 115 0052 FFF7FEFF 		bl	__aeabi_lmul
 116              	.LVL2:
 117 0056 FA22     		movs	r2, #250
 118 0058 0023     		movs	r3, #0
 119 005a 9200     		lsls	r2, r2, #2
 120 005c FFF7FEFF 		bl	__aeabi_uldivmod
 121              	.LVL3:
  31:delays.c      **** 	  T1IR  = 0xff;                           //Resetowanie flag przerwań
 122              		.loc 1 31 0
 123 0060 FF22     		movs	r2, #255
  30:delays.c      **** 	  T1MR0 = ((tU64)milisec)*((tU64)PERIPHERAL_CLOCK)/1000;
 124              		.loc 1 30 0
 125 0062 0A4B     		ldr	r3, .L10+12
 126 0064 1860     		str	r0, [r3]
 127              		.loc 1 31 0
 128 0066 0A4B     		ldr	r3, .L10+16
 129 0068 1A60     		str	r2, [r3]
  32:delays.c      **** 	  T1MCR = MR0_S;                          //Generuj okresowe przerwania
 130              		.loc 1 32 0
 131 006a 0A4B     		ldr	r3, .L10+20
 132 006c FB3A     		subs	r2, r2, #251
 133 006e 1A60     		str	r2, [r3]
ARM GAS  C:\Users\embedded\AppData\Local\Temp\ccWVz84i.s 			page 4


  33:delays.c      **** 	  T1TCR = TIMER_RUN;
 134              		.loc 1 33 0
 135 0070 0123     		movs	r3, #1
 136 0072 2360     		str	r3, [r4]
 137              	.L8:
  34:delays.c      **** 
  35:delays.c      **** 	  while (T1TCR & TIMER_RUN)
 138              		.loc 1 35 0 discriminator 1
 139 0074 2268     		ldr	r2, [r4]
 140 0076 1A42     		tst	r2, r3
 141 0078 FCD1     		bne	.L8
  36:delays.c      **** 	   {
  37:delays.c      **** 	   }
  38:delays.c      **** }
 142              		.loc 1 38 0
 143              		@ sp needed
 144 007a 10BC     		pop	{r4}
 145 007c 01BC     		pop	{r0}
 146 007e 0047     		bx	r0
 147              	.L11:
 148              		.align	2
 149              	.L10:
 150 0080 048000E0 		.word	-536838140
 151 0084 0C8000E0 		.word	-536838132
 152 0088 00879303 		.word	60000000
 153 008c 188000E0 		.word	-536838120
 154 0090 008000E0 		.word	-536838144
 155 0094 148000E0 		.word	-536838124
 156              		.cfi_endproc
 157              	.LFE1:
 158              		.size	delay_ms, .-delay_ms
 159              		.align	1
 160              		.global	delay_us
 161              		.code	16
 162              		.thumb_func
 163              		.type	delay_us, %function
 164              	delay_us:
 165              	.LFB2:
  39:delays.c      **** 
  40:delays.c      **** void delay_us (tU32 microsec)
  41:delays.c      **** {
 166              		.loc 1 41 0
 167              		.cfi_startproc
 168              		@ Function supports interworking.
 169              		@ args = 0, pretend = 0, frame = 0
 170              		@ frame_needed = 0, uses_anonymous_args = 0
 171              	.LVL4:
  42:delays.c      **** 	  T1TCR = TIMER_RESET;                    //Zatrzymaj i zresetuj
 172              		.loc 1 42 0
 173 0098 0223     		movs	r3, #2
  43:delays.c      ****       T1PR  = 0;                              //Preskaler nieużywany
 174              		.loc 1 43 0
 175 009a 0021     		movs	r1, #0
  41:delays.c      **** 	  T1TCR = TIMER_RESET;                    //Zatrzymaj i zresetuj
 176              		.loc 1 41 0
 177 009c 10B5     		push	{r4, lr}
 178              	.LCFI1:
ARM GAS  C:\Users\embedded\AppData\Local\Temp\ccWVz84i.s 			page 5


 179              		.cfi_def_cfa_offset 8
 180              		.cfi_offset 4, -8
 181              		.cfi_offset 14, -4
  42:delays.c      **** 	  T1TCR = TIMER_RESET;                    //Zatrzymaj i zresetuj
 182              		.loc 1 42 0
 183 009e 0E4C     		ldr	r4, .L15
 184 00a0 2360     		str	r3, [r4]
 185              		.loc 1 43 0
 186 00a2 0E4B     		ldr	r3, .L15+4
  44:delays.c      **** 	  T1MR0 = ((tU64)microsec)*((tU64)PERIPHERAL_CLOCK)/1000000;
 187              		.loc 1 44 0
 188 00a4 0E4A     		ldr	r2, .L15+8
  43:delays.c      ****       T1PR  = 0;                              //Preskaler nieużywany
 189              		.loc 1 43 0
 190 00a6 1960     		str	r1, [r3]
 191              		.loc 1 44 0
 192 00a8 0023     		movs	r3, #0
 193 00aa FFF7FEFF 		bl	__aeabi_lmul
 194              	.LVL5:
 195 00ae 0D4A     		ldr	r2, .L15+12
 196 00b0 0023     		movs	r3, #0
 197 00b2 FFF7FEFF 		bl	__aeabi_uldivmod
 198              	.LVL6:
  45:delays.c      ****       T1IR  = 0xff;                           //Resetowanie flag przerwań
 199              		.loc 1 45 0
 200 00b6 FF22     		movs	r2, #255
  44:delays.c      **** 	  T1MR0 = ((tU64)microsec)*((tU64)PERIPHERAL_CLOCK)/1000000;
 201              		.loc 1 44 0
 202 00b8 0B4B     		ldr	r3, .L15+16
 203 00ba 1860     		str	r0, [r3]
 204              		.loc 1 45 0
 205 00bc 0B4B     		ldr	r3, .L15+20
 206 00be 1A60     		str	r2, [r3]
  46:delays.c      ****       T1MCR = MR0_S;                  //Generuj okresowe przerwania
 207              		.loc 1 46 0
 208 00c0 0B4B     		ldr	r3, .L15+24
 209 00c2 FB3A     		subs	r2, r2, #251
 210 00c4 1A60     		str	r2, [r3]
  47:delays.c      **** 	  T1TCR = TIMER_RUN;
 211              		.loc 1 47 0
 212 00c6 0123     		movs	r3, #1
 213 00c8 2360     		str	r3, [r4]
 214              	.L13:
  48:delays.c      **** 
  49:delays.c      **** 	  while (T1TCR & TIMER_RUN)
 215              		.loc 1 49 0 discriminator 1
 216 00ca 2268     		ldr	r2, [r4]
 217 00cc 1A42     		tst	r2, r3
 218 00ce FCD1     		bne	.L13
  50:delays.c      **** 	  {
  51:delays.c      **** 	  }
  52:delays.c      **** }
 219              		.loc 1 52 0
 220              		@ sp needed
 221 00d0 10BC     		pop	{r4}
 222 00d2 01BC     		pop	{r0}
 223 00d4 0047     		bx	r0
ARM GAS  C:\Users\embedded\AppData\Local\Temp\ccWVz84i.s 			page 6


 224              	.L16:
 225 00d6 C046     		.align	2
 226              	.L15:
 227 00d8 048000E0 		.word	-536838140
 228 00dc 0C8000E0 		.word	-536838132
 229 00e0 00879303 		.word	60000000
 230 00e4 40420F00 		.word	1000000
 231 00e8 188000E0 		.word	-536838120
 232 00ec 008000E0 		.word	-536838144
 233 00f0 148000E0 		.word	-536838124
 234              		.cfi_endproc
 235              	.LFE2:
 236              		.size	delay_us, .-delay_us
 237              	.Letext0:
 238              		.file 2 "general.h"