ARM GAS  C:\Users\embedded\AppData\Local\Temp\cc9cUqYg.s 			page 1


   1              		.syntax unified
   2              		.cpu arm7tdmi
   3              		.fpu softvfp
   4              		.eabi_attribute 20, 1
   5              		.eabi_attribute 21, 1
   6              		.eabi_attribute 23, 3
   7              		.eabi_attribute 24, 1
   8              		.eabi_attribute 25, 1
   9              		.eabi_attribute 26, 1
  10              		.eabi_attribute 30, 4
  11              		.eabi_attribute 34, 0
  12              		.eabi_attribute 18, 4
  13              		.thumb
  14              		.syntax unified
  15              		.file	"DHT11.c"
  16              		.text
  17              	.Ltext0:
  18              		.cfi_sections	.debug_frame
  19              		.align	1
  20              		.global	dht11_request
  21              		.code	16
  22              		.thumb_func
  23              		.type	dht11_request, %function
  24              	dht11_request:
  25              	.LFB0:
  26              		.file 1 "DHT11.c"
   1:DHT11.c       **** #include "DHT11.h"
   2:DHT11.c       **** #include "delays.h"
   3:DHT11.c       **** 
   4:DHT11.c       **** void dht11_request(void)
   5:DHT11.c       **** {
  27              		.loc 1 5 0
  28              		.cfi_startproc
  29              		@ Function supports interworking.
  30              		@ args = 0, pretend = 0, frame = 0
  31              		@ frame_needed = 0, uses_anonymous_args = 0
  32 0000 10B5     		push	{r4, lr}
  33              	.LCFI0:
  34              		.cfi_def_cfa_offset 8
  35              		.cfi_offset 4, -8
  36              		.cfi_offset 14, -4
   6:DHT11.c       **** 	DHT11_OUTPUT();
  37              		.loc 1 6 0
  38 0002 1024     		movs	r4, #16
  39 0004 064A     		ldr	r2, .L2
  40 0006 1368     		ldr	r3, [r2]
  41 0008 2343     		orrs	r3, r4
  42 000a 1360     		str	r3, [r2]
   7:DHT11.c       **** 	DHT11_CLR();
  43              		.loc 1 7 0
  44 000c 054B     		ldr	r3, .L2+4
   8:DHT11.c       **** 	delay_ms(18);
  45              		.loc 1 8 0
  46 000e 1220     		movs	r0, #18
   7:DHT11.c       **** 	DHT11_CLR();
  47              		.loc 1 7 0
  48 0010 1C60     		str	r4, [r3]
ARM GAS  C:\Users\embedded\AppData\Local\Temp\cc9cUqYg.s 			page 2


  49              		.loc 1 8 0
  50 0012 FFF7FEFF 		bl	delay_ms
  51              	.LVL0:
   9:DHT11.c       **** 	DHT11_SET();
  52              		.loc 1 9 0
  53 0016 044B     		ldr	r3, .L2+8
  10:DHT11.c       **** }
  54              		.loc 1 10 0
  55              		@ sp needed
   9:DHT11.c       **** 	DHT11_SET();
  56              		.loc 1 9 0
  57 0018 1C60     		str	r4, [r3]
  58              		.loc 1 10 0
  59 001a 10BC     		pop	{r4}
  60 001c 01BC     		pop	{r0}
  61 001e 0047     		bx	r0
  62              	.L3:
  63              		.align	2
  64              	.L2:
  65 0020 088002E0 		.word	-536707064
  66 0024 0C8002E0 		.word	-536707060
  67 0028 048002E0 		.word	-536707068
  68              		.cfi_endproc
  69              	.LFE0:
  70              		.size	dht11_request, .-dht11_request
  71              		.align	1
  72              		.global	dht11_response
  73              		.code	16
  74              		.thumb_func
  75              		.type	dht11_response, %function
  76              	dht11_response:
  77              	.LFB1:
  11:DHT11.c       **** 
  12:DHT11.c       **** void dht11_response(void)
  13:DHT11.c       **** {
  78              		.loc 1 13 0
  79              		.cfi_startproc
  80              		@ Function supports interworking.
  81              		@ args = 0, pretend = 0, frame = 0
  82              		@ frame_needed = 0, uses_anonymous_args = 0
  14:DHT11.c       **** 	DHT11_INPUT();
  83              		.loc 1 14 0
  84 002c 1023     		movs	r3, #16
  85 002e 1149     		ldr	r1, .L26
  86 0030 0A68     		ldr	r2, [r1]
  87 0032 9A43     		bics	r2, r3
  13:DHT11.c       **** 	DHT11_INPUT();
  88              		.loc 1 13 0
  89 0034 10B5     		push	{r4, lr}
  90              	.LCFI1:
  91              		.cfi_def_cfa_offset 8
  92              		.cfi_offset 4, -8
  93              		.cfi_offset 14, -4
  94              		.loc 1 14 0
  95 0036 0A60     		str	r2, [r1]
  96              	.LVL1:
  15:DHT11.c       **** 
ARM GAS  C:\Users\embedded\AppData\Local\Temp\cc9cUqYg.s 			page 3


  16:DHT11.c       **** 	int err=0;
  17:DHT11.c       **** 	while( IOPIN0 & 0x00000010 )//wait for HIGH
  97              		.loc 1 17 0
  98 0038 0F4C     		ldr	r4, .L26+4
  99 003a 104A     		ldr	r2, .L26+8
 100              	.LVL2:
 101              	.L5:
 102 003c 2068     		ldr	r0, [r4]
 103 003e 0E49     		ldr	r1, .L26+4
 104 0040 1842     		tst	r0, r3
 105 0042 03D0     		beq	.L24
 106              	.LVL3:
 107 0044 013A     		subs	r2, r2, #1
 108              	.LVL4:
  18:DHT11.c       **** 	{
  19:DHT11.c       **** 		err++;
  20:DHT11.c       **** 		if(err>=1000000)return;
 109              		.loc 1 20 0
 110 0046 002A     		cmp	r2, #0
 111 0048 F8D1     		bne	.L5
 112 004a 10E0     		b	.L4
 113              	.L24:
  21:DHT11.c       **** 	}
  22:DHT11.c       **** 	err=0;
  23:DHT11.c       **** 
  24:DHT11.c       **** 	while( (IOPIN0 & 0x00000010) == 0 ) //wait for LOW
 114              		.loc 1 24 0
 115 004c 1022     		movs	r2, #16
 116              	.LVL5:
 117 004e 0B4B     		ldr	r3, .L26+8
 118              	.L9:
 119              	.LVL6:
 120 0050 0868     		ldr	r0, [r1]
 121 0052 1042     		tst	r0, r2
 122 0054 03D1     		bne	.L25
 123              	.LVL7:
 124 0056 013B     		subs	r3, r3, #1
 125              	.LVL8:
  25:DHT11.c       **** 	{
  26:DHT11.c       **** 		err++;
  27:DHT11.c       **** 		if(err>=1000000)return;
 126              		.loc 1 27 0
 127 0058 002B     		cmp	r3, #0
 128 005a F9D1     		bne	.L9
 129 005c 07E0     		b	.L4
 130              	.L25:
  28:DHT11.c       **** 	}
  29:DHT11.c       **** 	err=0;
  30:DHT11.c       **** 
  31:DHT11.c       **** 	while(IOPIN0 & 0x00000010) //wait for HIGH
 131              		.loc 1 31 0
 132 005e 1022     		movs	r2, #16
 133 0060 064B     		ldr	r3, .L26+8
 134              	.LVL9:
 135              	.L12:
 136 0062 0868     		ldr	r0, [r1]
 137 0064 1042     		tst	r0, r2
ARM GAS  C:\Users\embedded\AppData\Local\Temp\cc9cUqYg.s 			page 4


 138 0066 02D0     		beq	.L4
 139              	.LVL10:
 140 0068 013B     		subs	r3, r3, #1
 141              	.LVL11:
  32:DHT11.c       **** 	{
  33:DHT11.c       **** 		err++;
  34:DHT11.c       **** 		if(err>=1000000) return;
 142              		.loc 1 34 0
 143 006a 002B     		cmp	r3, #0
 144 006c F9D1     		bne	.L12
 145              	.LVL12:
 146              	.L4:
  35:DHT11.c       **** 	}
  36:DHT11.c       **** }
 147              		.loc 1 36 0
 148              		@ sp needed
 149 006e 10BC     		pop	{r4}
 150 0070 01BC     		pop	{r0}
 151 0072 0047     		bx	r0
 152              	.L27:
 153              		.align	2
 154              	.L26:
 155 0074 088002E0 		.word	-536707064
 156 0078 008002E0 		.word	-536707072
 157 007c 40420F00 		.word	1000000
 158              		.cfi_endproc
 159              	.LFE1:
 160              		.size	dht11_response, .-dht11_response
 161              		.align	1
 162              		.global	dht11_data
 163              		.code	16
 164              		.thumb_func
 165              		.type	dht11_data, %function
 166              	dht11_data:
 167              	.LFB2:
  37:DHT11.c       **** 
  38:DHT11.c       **** tU8 dht11_data(void)
  39:DHT11.c       **** {
 168              		.loc 1 39 0
 169              		.cfi_startproc
 170              		@ Function supports interworking.
 171              		@ args = 0, pretend = 0, frame = 0
 172              		@ frame_needed = 0, uses_anonymous_args = 0
 173              	.LVL13:
 174 0080 F8B5     		push	{r3, r4, r5, r6, r7, lr}
 175              	.LCFI2:
 176              		.cfi_def_cfa_offset 24
 177              		.cfi_offset 3, -24
 178              		.cfi_offset 4, -20
 179              		.cfi_offset 5, -16
 180              		.cfi_offset 6, -12
 181              		.cfi_offset 7, -8
 182              		.cfi_offset 14, -4
 183              		.loc 1 39 0
 184 0082 0825     		movs	r5, #8
  40:DHT11.c       **** 
  41:DHT11.c       **** 	int err=0;
ARM GAS  C:\Users\embedded\AppData\Local\Temp\cc9cUqYg.s 			page 5


  42:DHT11.c       **** 	int count;
  43:DHT11.c       **** 	tU8 data = 0;
 185              		.loc 1 43 0
 186 0084 0024     		movs	r4, #0
  44:DHT11.c       **** 	for(count = 0; count<8 ; count++)	/* 8 bits of data */
  45:DHT11.c       **** 	{
  46:DHT11.c       **** 		while( (IOPIN0 & 0x00000010) == 0 )	/* Wait till response is LOW */
 187              		.loc 1 46 0
 188 0086 1027     		movs	r7, #16
 189              	.LVL14:
 190              	.L29:
  43:DHT11.c       **** 	for(count = 0; count<8 ; count++)	/* 8 bits of data */
 191              		.loc 1 43 0
 192 0088 134B     		ldr	r3, .L46
 193              		.loc 1 46 0
 194 008a 1449     		ldr	r1, .L46+4
 195              	.LVL15:
 196              	.L30:
 197 008c 0A68     		ldr	r2, [r1]
 198 008e 134E     		ldr	r6, .L46+4
 199 0090 3A42     		tst	r2, r7
 200 0092 04D1     		bne	.L44
 201              	.LVL16:
 202 0094 013B     		subs	r3, r3, #1
 203              	.LVL17:
  47:DHT11.c       **** 		{
  48:DHT11.c       **** 				err++;
  49:DHT11.c       **** 				if(err>=1000000) return 0;
 204              		.loc 1 49 0
 205 0096 002B     		cmp	r3, #0
 206 0098 F8D1     		bne	.L30
 207              	.LVL18:
 208              	.L35:
 209 009a 0020     		movs	r0, #0
 210 009c 19E0     		b	.L31
 211              	.LVL19:
 212              	.L44:
  50:DHT11.c       **** 		}
  51:DHT11.c       **** 		err=0;
  52:DHT11.c       **** 		delay_us(30);	/* delay greater than 24 usec */
 213              		.loc 1 52 0
 214 009e 1E20     		movs	r0, #30
 215 00a0 FFF7FEFF 		bl	delay_us
 216              	.LVL20:
  53:DHT11.c       **** 		if ( IOPIN0 & 0x00000010 ) /* If response is HIGH, 1 is received */
 217              		.loc 1 53 0
 218 00a4 1022     		movs	r2, #16
 219 00a6 3368     		ldr	r3, [r6]
 220 00a8 1342     		tst	r3, r2
 221 00aa 04D0     		beq	.L33
  54:DHT11.c       **** 			data = ( (data<<1) | 0x01 );
 222              		.loc 1 54 0
 223 00ac 0123     		movs	r3, #1
 224 00ae 6400     		lsls	r4, r4, #1
 225              	.LVL21:
 226 00b0 1C43     		orrs	r4, r3
 227 00b2 2406     		lsls	r4, r4, #24
ARM GAS  C:\Users\embedded\AppData\Local\Temp\cc9cUqYg.s 			page 6


 228 00b4 00E0     		b	.L43
 229              	.LVL22:
 230              	.L33:
  55:DHT11.c       **** 		else	/* If response is LOW, 0 is received */
  56:DHT11.c       **** 			data = (data<<1);
 231              		.loc 1 56 0
 232 00b6 6406     		lsls	r4, r4, #25
 233              	.LVL23:
 234              	.L43:
  43:DHT11.c       **** 	for(count = 0; count<8 ; count++)	/* 8 bits of data */
 235              		.loc 1 43 0
 236 00b8 074B     		ldr	r3, .L46
 237              		.loc 1 56 0
 238 00ba 240E     		lsrs	r4, r4, #24
 239              	.LVL24:
 240              	.L36:
  57:DHT11.c       **** 		while( IOPIN0 & 0x00000010 )	/* Wait till response is HIGH (happens if 1 is received) */
 241              		.loc 1 57 0
 242 00bc 3268     		ldr	r2, [r6]
 243 00be 3A42     		tst	r2, r7
 244 00c0 03D0     		beq	.L45
 245              	.LVL25:
 246 00c2 013B     		subs	r3, r3, #1
 247              	.LVL26:
  58:DHT11.c       **** 		{
  59:DHT11.c       **** 				err++;
  60:DHT11.c       **** 				if(err>=1000000) return 0;
 248              		.loc 1 60 0
 249 00c4 002B     		cmp	r3, #0
 250 00c6 F9D1     		bne	.L36
 251 00c8 E7E7     		b	.L35
 252              	.L45:
 253              	.LVL27:
 254 00ca 013D     		subs	r5, r5, #1
 255              	.LVL28:
  44:DHT11.c       **** 	{
 256              		.loc 1 44 0 discriminator 2
 257 00cc 002D     		cmp	r5, #0
 258 00ce DBD1     		bne	.L29
 259 00d0 2000     		movs	r0, r4
 260              	.LVL29:
 261              	.L31:
  61:DHT11.c       **** 		}
  62:DHT11.c       **** 		err=0;
  63:DHT11.c       **** 	}
  64:DHT11.c       **** 
  65:DHT11.c       **** 	return data;
  66:DHT11.c       **** }
 262              		.loc 1 66 0
 263              		@ sp needed
 264              	.LVL30:
 265 00d2 F8BC     		pop	{r3, r4, r5, r6, r7}
 266 00d4 02BC     		pop	{r1}
 267 00d6 0847     		bx	r1
 268              	.L47:
 269              		.align	2
 270              	.L46:
ARM GAS  C:\Users\embedded\AppData\Local\Temp\cc9cUqYg.s 			page 7


 271 00d8 40420F00 		.word	1000000
 272 00dc 008002E0 		.word	-536707072
 273              		.cfi_endproc
 274              	.LFE2:
 275              		.size	dht11_data, .-dht11_data
 276              	.Letext0:
 277              		.file 2 "delays.h"
 278              		.file 3 "general.h"