ARM GAS  C:\Users\embedded\AppData\Local\Temp\ccXlEbX2.s 			page 1


   1              		.syntax unified
   2              		.cpu arm7tdmi
   3              		.fpu softvfp
   4              		.eabi_attribute 20, 1
   5              		.eabi_attribute 21, 1
   6              		.eabi_attribute 23, 3
   7              		.eabi_attribute 24, 1
   8              		.eabi_attribute 25, 1
   9              		.eabi_attribute 26, 1
  10              		.eabi_attribute 30, 4
  11              		.eabi_attribute 34, 0
  12              		.eabi_attribute 18, 4
  13              		.thumb
  14              		.syntax unified
  15              		.file	"eeprom.c"
  16              		.text
  17              	.Ltext0:
  18              		.cfi_sections	.debug_frame
  19              		.align	1
  20              		.global	eepromPoll
  21              		.code	16
  22              		.thumb_func
  23              		.type	eepromPoll, %function
  24              	eepromPoll:
  25              	.LFB0:
  26              		.file 1 "eeprom.c"
   1:eeprom.c      **** #include "general.h"
   2:eeprom.c      **** #include "i2c.h"
   3:eeprom.c      **** 
   4:eeprom.c      **** 
   5:eeprom.c      **** #define EEPROM_SIZE       0x0100
   6:eeprom.c      **** #define LOCAL_EEPROM_ADDR 0x0
   7:eeprom.c      **** #define EEPROM_ADDR       0xA0
   8:eeprom.c      **** 
   9:eeprom.c      **** #define I2C_EEPROM_ADDR   (EEPROM_ADDR + (LOCAL_EEPROM_ADDR << 1)) //adres pamieci eeprom potrzebny
  10:eeprom.c      **** #define I2C_EEPROM_RCV    (EEPROM_ADDR + (LOCAL_EEPROM_ADDR << 1) + 0x01) // flaga transimisji - od
  11:eeprom.c      **** #define I2C_EEPROM_SND    (EEPROM_ADDR + (LOCAL_EEPROM_ADDR << 1) + 0x00) // flaga transmisji - wys
  12:eeprom.c      **** 
  13:eeprom.c      **** //-------------------------------------------------------------------------- FUNKCJE --------------
  14:eeprom.c      **** 
  15:eeprom.c      **** /******************************************************************************
  16:eeprom.c      ****  *
  17:eeprom.c      ****  * Opis:
  18:eeprom.c      ****  *    Oczekiwanie na zwrot ACK przez i2c
  19:eeprom.c      ****  *
  20:eeprom.c      ****  * Zwraca:
  21:eeprom.c      ****  *    I2C_CODE_OK lub I2C_CODE_ERROR
  22:eeprom.c      ****  *
  23:eeprom.c      ****  *****************************************************************************/
  24:eeprom.c      **** tS8 eepromPoll(void)
  25:eeprom.c      **** {
  27              		.loc 1 25 0
  28              		.cfi_startproc
  29              		@ Function supports interworking.
  30              		@ args = 0, pretend = 0, frame = 0
  31              		@ frame_needed = 0, uses_anonymous_args = 0
  32 0000 70B5     		push	{r4, r5, r6, lr}
ARM GAS  C:\Users\embedded\AppData\Local\Temp\ccXlEbX2.s 			page 2


  33              	.LCFI0:
  34              		.cfi_def_cfa_offset 16
  35              		.cfi_offset 4, -16
  36              		.cfi_offset 5, -12
  37              		.cfi_offset 6, -8
  38              		.cfi_offset 14, -4
  39              	.L5:
  40              	.LVL0:
  26:eeprom.c      ****   tS8 retCode  = I2C_CODE_OK;
  27:eeprom.c      ****   tU8 status   = 0;
  28:eeprom.c      ****   tBool burnEnd = FALSE;
  29:eeprom.c      **** 
  30:eeprom.c      ****   while(burnEnd == FALSE)
  31:eeprom.c      ****   {
  32:eeprom.c      ****     retCode = i2cStart(); //generuj sygnal start
  41              		.loc 1 32 0
  42 0002 FFF7FEFF 		bl	i2cStart
  43              	.LVL1:
  44 0006 0025     		movs	r5, #0
  45 0008 0400     		movs	r4, r0
  46              	.LVL2:
  33:eeprom.c      **** 
  34:eeprom.c      ****     /* Wyslij SLA+W */
  35:eeprom.c      ****     if(retCode == I2C_CODE_OK)
  47              		.loc 1 35 0
  48 000a 0128     		cmp	r0, #1
  49 000c 14D1     		bne	.L2
  50              	.LVL3:
  51              	.L4:
  36:eeprom.c      ****     {
  37:eeprom.c      ****       /* Zapisz SLA+W */
  38:eeprom.c      ****       retCode = i2cPutChar(I2C_EEPROM_SND);
  39:eeprom.c      ****       while(retCode == I2C_CODE_BUSY)
  40:eeprom.c      ****       {
  41:eeprom.c      ****         retCode = i2cPutChar(I2C_EEPROM_SND);
  52              		.loc 1 41 0
  53 000e A020     		movs	r0, #160
  54 0010 FFF7FEFF 		bl	i2cPutChar
  55              	.LVL4:
  56 0014 0400     		movs	r4, r0
  57              	.LVL5:
  39:eeprom.c      ****       {
  58              		.loc 1 39 0
  59 0016 031D     		adds	r3, r0, #4
  60 0018 F9D0     		beq	.L4
  61 001a 0025     		movs	r5, #0
  42:eeprom.c      ****       }
  43:eeprom.c      ****     }
  44:eeprom.c      **** 
  45:eeprom.c      ****     if(retCode == I2C_CODE_OK)
  62              		.loc 1 45 0
  63 001c 0128     		cmp	r0, #1
  64 001e 0BD1     		bne	.L2
  46:eeprom.c      ****     {
  47:eeprom.c      ****       /* czekaj dopoki SLA+W wyslany */
  48:eeprom.c      ****       status = i2cCheckStatus(); // odczytaj aktualny status i2c
  65              		.loc 1 48 0
ARM GAS  C:\Users\embedded\AppData\Local\Temp\ccXlEbX2.s 			page 3


  66 0020 FFF7FEFF 		bl	i2cCheckStatus
  67              	.LVL6:
  49:eeprom.c      **** 
  50:eeprom.c      ****       if(status == 0x18) //jesli dane przeslano z powodzeniem i otrzymano 
  68              		.loc 1 50 0
  69 0024 1828     		cmp	r0, #24
  70 0026 06D0     		beq	.L8
  51:eeprom.c      ****       {
  52:eeprom.c      ****         burnEnd = TRUE;
  53:eeprom.c      ****       }
  54:eeprom.c      ****       else if(status == 0x20)
  71              		.loc 1 54 0
  72 0028 2028     		cmp	r0, #32
  73 002a 05D0     		beq	.L2
  55:eeprom.c      ****       {
  56:eeprom.c      ****         // dane wyslane i bit ACK otrzymany
  57:eeprom.c      ****         // wyslij bit startu, start ponownie
  58:eeprom.c      ****         burnEnd = FALSE;
  59:eeprom.c      ****       }
  60:eeprom.c      ****       else if( status != 0xf8 ) // BLAD
  74              		.loc 1 60 0
  75 002c F828     		cmp	r0, #248
  76 002e 03D0     		beq	.L2
  61:eeprom.c      ****       {
  62:eeprom.c      ****         retCode = I2C_CODE_ERROR;
  63:eeprom.c      ****         burnEnd = TRUE;
  77              		.loc 1 63 0
  78 0030 2500     		movs	r5, r4
  62:eeprom.c      ****         burnEnd = TRUE;
  79              		.loc 1 62 0
  80 0032 023C     		subs	r4, r4, #2
  81 0034 00E0     		b	.L2
  82              	.L8:
  52:eeprom.c      ****       }
  83              		.loc 1 52 0
  84 0036 2500     		movs	r5, r4
  85              	.LVL7:
  86              	.L2:
  64:eeprom.c      ****       }
  65:eeprom.c      ****     }
  66:eeprom.c      **** 
  67:eeprom.c      ****     i2cStop(); // generowanie sygnalu stop
  87              		.loc 1 67 0
  88 0038 FFF7FEFF 		bl	i2cStop
  89              	.LVL8:
  30:eeprom.c      ****   {
  90              		.loc 1 30 0
  91 003c 002D     		cmp	r5, #0
  92 003e E0D0     		beq	.L5
  68:eeprom.c      ****   } 
  69:eeprom.c      **** 
  70:eeprom.c      **** 
  71:eeprom.c      ****   return retCode;
  72:eeprom.c      **** 
  73:eeprom.c      **** }
  93              		.loc 1 73 0
  94 0040 2000     		movs	r0, r4
ARM GAS  C:\Users\embedded\AppData\Local\Temp\ccXlEbX2.s 			page 4


  95              		@ sp needed
  96              	.LVL9:
  97 0042 70BC     		pop	{r4, r5, r6}
  98 0044 02BC     		pop	{r1}
  99 0046 0847     		bx	r1
 100              		.cfi_endproc
 101              	.LFE0:
 102              		.size	eepromPoll, .-eepromPoll
 103              		.align	1
 104              		.global	eepromStartRead
 105              		.code	16
 106              		.thumb_func
 107              		.type	eepromStartRead, %function
 108              	eepromStartRead:
 109              	.LFB1:
  74:eeprom.c      **** 
  75:eeprom.c      **** /******************************************************************************
  76:eeprom.c      ****  *
  77:eeprom.c      ****  * Opis:
  78:eeprom.c      ****  *    Rozpocznij odczyt
  79:eeprom.c      ****  *
  80:eeprom.c      ****  * Parametry:
  81:eeprom.c      ****  *    [in] devAddr - adres urzadzenia z ktorego odbywa sie odczyt
  82:eeprom.c      ****  *    [in] address - adres pamieci eeprom
  83:eeprom.c      ****  *
  84:eeprom.c      ****  * Zwraca:
  85:eeprom.c      ****  *    I2C_CODE_OK lub I2C_CODE_ERROR
  86:eeprom.c      ****  *
  87:eeprom.c      ****  *****************************************************************************/
  88:eeprom.c      **** tS8 eepromStartRead(tU8  devAddr, tU16 address)
  89:eeprom.c      **** {
 110              		.loc 1 89 0
 111              		.cfi_startproc
 112              		@ Function supports interworking.
 113              		@ args = 0, pretend = 0, frame = 0
 114              		@ frame_needed = 0, uses_anonymous_args = 0
 115              	.LVL10:
 116 0048 70B5     		push	{r4, r5, r6, lr}
 117              	.LCFI1:
 118              		.cfi_def_cfa_offset 16
 119              		.cfi_offset 4, -16
 120              		.cfi_offset 5, -12
 121              		.cfi_offset 6, -8
 122              		.cfi_offset 14, -4
 123              		.loc 1 89 0
 124 004a 0400     		movs	r4, r0
 125 004c 0D00     		movs	r5, r1
  90:eeprom.c      ****   tS8 retCode = 0;
  91:eeprom.c      ****   tU8 status  = 0;
  92:eeprom.c      ****   
  93:eeprom.c      ****   retCode = i2cStart(); // generowanie komunikatu start
 126              		.loc 1 93 0
 127 004e FFF7FEFF 		bl	i2cStart
 128              	.LVL11:
  94:eeprom.c      **** 
  95:eeprom.c      ****   //Wyslij adres
  96:eeprom.c      ****   if(retCode == I2C_CODE_OK )
ARM GAS  C:\Users\embedded\AppData\Local\Temp\ccXlEbX2.s 			page 5


 129              		.loc 1 96 0
 130 0052 0128     		cmp	r0, #1
 131 0054 16D1     		bne	.L19
 132              	.L17:
  97:eeprom.c      ****   {
  98:eeprom.c      ****     /* Wyslij SLA+W */
  99:eeprom.c      ****     retCode = i2cPutChar(devAddr);
 100:eeprom.c      ****     while( retCode == I2C_CODE_BUSY )
 101:eeprom.c      ****     {
 102:eeprom.c      ****       retCode = i2cPutChar( devAddr );
 133              		.loc 1 102 0
 134 0056 2000     		movs	r0, r4
 135              	.LVL12:
 136 0058 FFF7FEFF 		bl	i2cPutChar
 137              	.LVL13:
 100:eeprom.c      ****     {
 138              		.loc 1 100 0
 139 005c 031D     		adds	r3, r0, #4
 140 005e FAD0     		beq	.L17
 141 0060 2BE0     		b	.L40
 142              	.LVL14:
 143              	.L20:
 103:eeprom.c      ****     }
 104:eeprom.c      ****   }
 105:eeprom.c      **** 
 106:eeprom.c      ****   if( retCode == I2C_CODE_OK )
 107:eeprom.c      ****   {
 108:eeprom.c      **** #if 0
 109:eeprom.c      ****     // oczekuj dopoki dane zostana wyslane
 110:eeprom.c      ****     while(1)
 111:eeprom.c      ****     {
 112:eeprom.c      ****       status = i2cCheckStatus();
 113:eeprom.c      **** 
 114:eeprom.c      ****       if( (status == 0x18) || (status == 0x28) )
 115:eeprom.c      ****       {
 116:eeprom.c      ****         //Dane wyslane i bit ACK otrzymany
 117:eeprom.c      **** 
 118:eeprom.c      **** 
 119:eeprom.c      ****         // Zapisz dane
 120:eeprom.c      ****         retCode = i2cPutChar( (tU8)(address >> 8) );
 121:eeprom.c      ****         while(retCode == I2C_CODE_BUSY)
 122:eeprom.c      ****         {
 123:eeprom.c      ****           retCode = i2cPutChar( (tU8)(address >> 8) );
 124:eeprom.c      ****         }
 125:eeprom.c      ****         break;
 126:eeprom.c      ****       }
 127:eeprom.c      ****       else if(status != 0xf8) // BLAD
 128:eeprom.c      ****       {
 129:eeprom.c      ****         retCode = I2C_CODE_ERROR;
 130:eeprom.c      ****         break;
 131:eeprom.c      ****       }
 132:eeprom.c      ****     }
 133:eeprom.c      **** #endif
 134:eeprom.c      **** 
 135:eeprom.c      ****     if(retCode == I2C_CODE_OK)
 136:eeprom.c      ****     {
 137:eeprom.c      ****       // oczekuj dopoki dane zostana wyslane
ARM GAS  C:\Users\embedded\AppData\Local\Temp\ccXlEbX2.s 			page 6


 138:eeprom.c      ****       while(1)
 139:eeprom.c      ****       {
 140:eeprom.c      ****         status = i2cCheckStatus(); // odczytaj aktualny status i2c
 141:eeprom.c      **** 
 142:eeprom.c      ****         if( (status == 0x18) || (status == 0x28) )
 143:eeprom.c      ****         {
 144:eeprom.c      ****           // Dane wyslane i bit ACK otrzymany
 145:eeprom.c      **** 
 146:eeprom.c      ****           // Zapisz dane
 147:eeprom.c      ****           retCode = i2cPutChar( (tU8)(address & 0xff) );
 148:eeprom.c      ****           while( retCode == I2C_CODE_BUSY )
 149:eeprom.c      ****           {
 150:eeprom.c      ****             retCode = i2cPutChar( (tU8)(address & 0xff) );
 151:eeprom.c      ****           }
 152:eeprom.c      **** 
 153:eeprom.c      ****           break;
 154:eeprom.c      ****         }
 155:eeprom.c      ****         else if( status != 0xf8 ) // BLAD
 144              		.loc 1 155 0
 145 0062 F828     		cmp	r0, #248
 146 0064 0ED1     		bne	.L19
 147              	.LVL15:
 148              	.L38:
 140:eeprom.c      **** 
 149              		.loc 1 140 0
 150 0066 FFF7FEFF 		bl	i2cCheckStatus
 151              	.LVL16:
 142:eeprom.c      ****         {
 152              		.loc 1 142 0
 153 006a 0300     		movs	r3, r0
 154 006c 183B     		subs	r3, r3, #24
 155 006e B343     		bics	r3, r6
 156 0070 1B06     		lsls	r3, r3, #24
 157 0072 1B0E     		lsrs	r3, r3, #24
 158 0074 F5D1     		bne	.L20
 147:eeprom.c      ****           while( retCode == I2C_CODE_BUSY )
 159              		.loc 1 147 0
 160 0076 2D06     		lsls	r5, r5, #24
 161 0078 2D0E     		lsrs	r5, r5, #24
 162              	.LVL17:
 163              	.L22:
 150:eeprom.c      ****           }
 164              		.loc 1 150 0
 165 007a 2800     		movs	r0, r5
 166 007c FFF7FEFF 		bl	i2cPutChar
 167              	.LVL18:
 148:eeprom.c      ****           {
 168              		.loc 1 148 0
 169 0080 031D     		adds	r3, r0, #4
 170 0082 FAD0     		beq	.L22
 171              	.LVL19:
 172              	.L19:
 156:eeprom.c      ****         {
 157:eeprom.c      ****           retCode = I2C_CODE_ERROR;
 158:eeprom.c      ****           break;
 159:eeprom.c      ****         }
 160:eeprom.c      ****       }
ARM GAS  C:\Users\embedded\AppData\Local\Temp\ccXlEbX2.s 			page 7


 161:eeprom.c      ****     }
 162:eeprom.c      ****   }
 163:eeprom.c      **** 
 164:eeprom.c      ****   // oczekuj dopoki dane zostana wyslane
 165:eeprom.c      ****   while(1)
 166:eeprom.c      ****   {
 167:eeprom.c      ****     status = i2cCheckStatus(); // odczytaj aktualny status i2c
 173              		.loc 1 167 0
 174 0084 FFF7FEFF 		bl	i2cCheckStatus
 175              	.LVL20:
 168:eeprom.c      **** 
 169:eeprom.c      ****     if(status == 0x28)
 170:eeprom.c      ****     {
 171:eeprom.c      ****       // dane wyslane i bit ACK otrzymany
 172:eeprom.c      ****       break;
 173:eeprom.c      ****     }
 174:eeprom.c      ****     else if( status != 0xf8 ) // BLAD
 176              		.loc 1 174 0
 177 0088 F828     		cmp	r0, #248
 178 008a FBD0     		beq	.L19
 175:eeprom.c      ****     {
 176:eeprom.c      ****       retCode = I2C_CODE_ERROR;
 177:eeprom.c      ****       break;
 178:eeprom.c      ****     }
 179:eeprom.c      ****   }
 180:eeprom.c      **** 
 181:eeprom.c      ****   retCode = i2cRepeatStart(); // generowanie komunikatu start
 179              		.loc 1 181 0
 180 008c FFF7FEFF 		bl	i2cRepeatStart
 181              	.LVL21:
 182 0090 0500     		movs	r5, r0
 183              	.LVL22:
 182:eeprom.c      **** 
 183:eeprom.c      ****   if( retCode == I2C_CODE_OK) //jesli brak bledow to wyslij adres 
 184              		.loc 1 183 0
 185 0092 0128     		cmp	r0, #1
 186 0094 08D1     		bne	.L28
 184:eeprom.c      ****   {
 185:eeprom.c      ****     /* Wyslij SLA+R */
 186:eeprom.c      ****     retCode = i2cPutChar( devAddr + 0x01 );
 187              		.loc 1 186 0
 188 0096 0134     		adds	r4, r4, #1
 189 0098 2406     		lsls	r4, r4, #24
 190 009a 240E     		lsrs	r4, r4, #24
 191              	.LVL23:
 192              	.L26:
 187:eeprom.c      ****     while( retCode == I2C_CODE_BUSY )
 188:eeprom.c      ****     {
 189:eeprom.c      ****       retCode = i2cPutChar( devAddr + 0x01 );
 193              		.loc 1 189 0
 194 009c 2000     		movs	r0, r4
 195 009e FFF7FEFF 		bl	i2cPutChar
 196              	.LVL24:
 197 00a2 0500     		movs	r5, r0
 198              	.LVL25:
 187:eeprom.c      ****     while( retCode == I2C_CODE_BUSY )
 199              		.loc 1 187 0
ARM GAS  C:\Users\embedded\AppData\Local\Temp\ccXlEbX2.s 			page 8


 200 00a4 031D     		adds	r3, r0, #4
 201 00a6 F9D0     		beq	.L26
 202              	.LVL26:
 203              	.L28:
 190:eeprom.c      ****     }
 191:eeprom.c      ****   }
 192:eeprom.c      **** 
 193:eeprom.c      ****   /* Czekaj dopoki SLA+R wyslany */
 194:eeprom.c      ****   while(1)
 195:eeprom.c      ****   {
 196:eeprom.c      ****     status = i2cCheckStatus(); // odczytaj aktualny status i2c
 204              		.loc 1 196 0
 205 00a8 FFF7FEFF 		bl	i2cCheckStatus
 206              	.LVL27:
 197:eeprom.c      **** 
 198:eeprom.c      ****     if(status == 0x40)
 207              		.loc 1 198 0
 208 00ac 4028     		cmp	r0, #64
 209 00ae 08D0     		beq	.L33
 199:eeprom.c      ****     {
 200:eeprom.c      ****       // Dane wyslane i bit ACK otrzymany
 201:eeprom.c      ****       break;
 202:eeprom.c      ****     }
 203:eeprom.c      ****     else if(status != 0xf8) //BLAD
 210              		.loc 1 203 0
 211 00b0 F828     		cmp	r0, #248
 212 00b2 F9D0     		beq	.L28
 204:eeprom.c      ****     {
 205:eeprom.c      ****       retCode = I2C_CODE_ERROR;
 213              		.loc 1 205 0
 214 00b4 0125     		movs	r5, #1
 215              	.LVL28:
 216 00b6 6D42     		rsbs	r5, r5, #0
 206:eeprom.c      ****       break;
 207:eeprom.c      ****     }
 208:eeprom.c      ****   }
 209:eeprom.c      **** 
 210:eeprom.c      **** 
 211:eeprom.c      ****   return retCode;
 217              		.loc 1 211 0
 218 00b8 03E0     		b	.L33
 219              	.LVL29:
 220              	.L40:
 142:eeprom.c      ****         {
 221              		.loc 1 142 0
 222 00ba 1026     		movs	r6, #16
 106:eeprom.c      ****   {
 223              		.loc 1 106 0
 224 00bc 0128     		cmp	r0, #1
 225 00be D2D0     		beq	.L38
 226 00c0 E0E7     		b	.L19
 227              	.LVL30:
 228              	.L33:
 212:eeprom.c      **** }
 229              		.loc 1 212 0
 230 00c2 2800     		movs	r0, r5
 231              	.LVL31:
ARM GAS  C:\Users\embedded\AppData\Local\Temp\ccXlEbX2.s 			page 9


 232              		@ sp needed
 233 00c4 70BC     		pop	{r4, r5, r6}
 234 00c6 02BC     		pop	{r1}
 235 00c8 0847     		bx	r1
 236              		.cfi_endproc
 237              	.LFE1:
 238              		.size	eepromStartRead, .-eepromStartRead
 239              		.align	1
 240              		.global	eepromPageRead
 241              		.code	16
 242              		.thumb_func
 243              		.type	eepromPageRead, %function
 244              	eepromPageRead:
 245              	.LFB2:
 213:eeprom.c      **** 
 214:eeprom.c      **** //-------------------------------------------------------------
 215:eeprom.c      **** // BUFOR DO ODCZYTU:
 216:eeprom.c      **** // Bajt 00: Adres urzadzenia R/Wn=0 (WRITE)			(tryb zapisu)
 217:eeprom.c      **** ////////// Bajt 01: EEPROM Address MSB   (A14..A08) (najbardziej znaczacy bajt adresu pamieci eepro
 218:eeprom.c      **** // Bajt 02: EEPROM Address LSB   (A07..A00)			(najmniej znaczacy  bajt adresu pamieci eeprom)
 219:eeprom.c      **** // Bajt 03: Adres urzadzenia R/Wn=1 (READ)			(tryb odczytu)
 220:eeprom.c      **** // Bajt 04 do 67: Buffer for data read from EEPROM  (bufor do odczytu danych z pamieci)
 221:eeprom.c      **** //-------------------------------------------------------------
 222:eeprom.c      **** //  Parametry:
 223:eeprom.c      **** //      pRxData     wskaznik do bufora sluzacego do odbioru danych
 224:eeprom.c      **** //      Length      ilosc bajtow do odbioru
 225:eeprom.c      **** //
 226:eeprom.c      **** //  Zwraca:
 227:eeprom.c      **** //      MA_OK lub kod statusu I2C 
 228:eeprom.c      **** //
 229:eeprom.c      **** //-------------------------------------------------------------
 230:eeprom.c      **** tS8 eepromPageRead(tU16 address, tU8* pBuf, tU16 len) 
 231:eeprom.c      **** {
 246              		.loc 1 231 0
 247              		.cfi_startproc
 248              		@ Function supports interworking.
 249              		@ args = 0, pretend = 0, frame = 0
 250              		@ frame_needed = 0, uses_anonymous_args = 0
 251              	.LVL32:
 252 00ca F8B5     		push	{r3, r4, r5, r6, r7, lr}
 253              	.LCFI2:
 254              		.cfi_def_cfa_offset 24
 255              		.cfi_offset 3, -24
 256              		.cfi_offset 4, -20
 257              		.cfi_offset 5, -16
 258              		.cfi_offset 6, -12
 259              		.cfi_offset 7, -8
 260              		.cfi_offset 14, -4
 261              		.loc 1 231 0
 262 00cc 0E00     		movs	r6, r1
 232:eeprom.c      ****   tS8  retCode = 0;
 233:eeprom.c      ****   tU8  status  = 0;
 234:eeprom.c      ****   tU16 i       = 0;
 235:eeprom.c      **** 
 236:eeprom.c      ****   /* Write 4 bytes, see 24C256 Random Read */
 237:eeprom.c      ****   retCode = eepromStartRead(I2C_EEPROM_ADDR, address);
 263              		.loc 1 237 0
ARM GAS  C:\Users\embedded\AppData\Local\Temp\ccXlEbX2.s 			page 10


 264 00ce 0100     		movs	r1, r0
 265              	.LVL33:
 266 00d0 A020     		movs	r0, #160
 267              	.LVL34:
 231:eeprom.c      ****   tS8  retCode = 0;
 268              		.loc 1 231 0
 269 00d2 1700     		movs	r7, r2
 270              		.loc 1 237 0
 271 00d4 FFF7FEFF 		bl	eepromStartRead
 272              	.LVL35:
 273 00d8 0500     		movs	r5, r0
 274              	.LVL36:
 275 00da 0400     		movs	r4, r0
 238:eeprom.c      **** 
 239:eeprom.c      **** 
 240:eeprom.c      ****   if( retCode == I2C_CODE_OK )
 276              		.loc 1 240 0
 277 00dc 0128     		cmp	r0, #1
 278 00de 25D1     		bne	.L42
 279              	.LVL37:
 280              	.L43:
 241:eeprom.c      ****   {
 242:eeprom.c      ****     // oczekuj dopoki wyslany zostanie adres i odbieraj dane
 243:eeprom.c      ****     for(i = 1; i <= len; i++ )
 281              		.loc 1 243 0 discriminator 1
 282 00e0 BC42     		cmp	r4, r7
 283 00e2 23D8     		bhi	.L42
 284              	.L55:
 244:eeprom.c      ****     {
 245:eeprom.c      ****       //oczekuj dopoki wyslane zostana wszystkie bajty danych 
 246:eeprom.c      ****       while(1)
 247:eeprom.c      ****       {
 248:eeprom.c      ****         status = i2cCheckStatus(); //odczytaj aktualny status i2c
 285              		.loc 1 248 0
 286 00e4 FFF7FEFF 		bl	i2cCheckStatus
 287              	.LVL38:
 249:eeprom.c      **** 
 250:eeprom.c      ****         if(( status == 0x40 ) || ( status == 0x48 ) || ( status == 0x50 ))
 288              		.loc 1 250 0
 289 00e8 0822     		movs	r2, #8
 290 00ea 0300     		movs	r3, r0
 291 00ec 9343     		bics	r3, r2
 292 00ee 1B06     		lsls	r3, r3, #24
 293 00f0 1B0E     		lsrs	r3, r3, #24
 294 00f2 402B     		cmp	r3, #64
 295 00f4 01D0     		beq	.L44
 296              		.loc 1 250 0 is_stmt 0 discriminator 2
 297 00f6 5028     		cmp	r0, #80
 298 00f8 0FD1     		bne	.L45
 299              	.L44:
 251:eeprom.c      ****         {
 252:eeprom.c      **** 			// dane otrzymane
 253:eeprom.c      **** 
 254:eeprom.c      ****           if(i == len )
 255:eeprom.c      ****           {
 256:eeprom.c      **** 			//generowanie bitu NACK gdy otrzymano wszystkie bajty
 257:eeprom.c      ****             retCode = i2cGetChar( I2C_MODE_ACK1, pBuf );
ARM GAS  C:\Users\embedded\AppData\Local\Temp\ccXlEbX2.s 			page 11


 300              		.loc 1 257 0 is_stmt 1
 301 00fa 3100     		movs	r1, r6
 302 00fc 0120     		movs	r0, #1
 303              	.LVL39:
 254:eeprom.c      ****           {
 304              		.loc 1 254 0
 305 00fe BC42     		cmp	r4, r7
 306 0100 00D0     		beq	.L58
 307              	.LVL40:
 258:eeprom.c      ****           }
 259:eeprom.c      ****           else
 260:eeprom.c      ****           {
 261:eeprom.c      ****             retCode = i2cGetChar( I2C_MODE_ACK0, pBuf );
 308              		.loc 1 261 0
 309 0102 0020     		movs	r0, #0
 310              	.L58:
 311 0104 FFF7FEFF 		bl	i2cGetChar
 312              	.LVL41:
 313              	.L49:
 262:eeprom.c      ****           }
 263:eeprom.c      **** 
 264:eeprom.c      **** 		//odczytaj dane
 265:eeprom.c      ****           retCode = i2cGetChar( I2C_MODE_READ, pBuf );
 266:eeprom.c      ****           while( retCode == I2C_CODE_EMPTY )
 267:eeprom.c      ****           {
 268:eeprom.c      ****             retCode = i2cGetChar( I2C_MODE_READ, pBuf );
 314              		.loc 1 268 0
 315 0108 3100     		movs	r1, r6
 316 010a 0220     		movs	r0, #2
 317 010c FFF7FEFF 		bl	i2cGetChar
 318              	.LVL42:
 319 0110 0500     		movs	r5, r0
 320              	.LVL43:
 266:eeprom.c      ****           {
 321              		.loc 1 266 0
 322 0112 C31C     		adds	r3, r0, #3
 323 0114 F8D0     		beq	.L49
 269:eeprom.c      ****           }
 270:eeprom.c      ****           pBuf++;
 324              		.loc 1 270 0
 325 0116 0136     		adds	r6, r6, #1
 326              	.LVL44:
 271:eeprom.c      **** 
 272:eeprom.c      ****           break;
 327              		.loc 1 272 0
 328 0118 04E0     		b	.L50
 329              	.LVL45:
 330              	.L45:
 273:eeprom.c      ****         }
 274:eeprom.c      ****         else if( status != 0xf8 ) //BLAD
 331              		.loc 1 274 0
 332 011a F828     		cmp	r0, #248
 333 011c E2D0     		beq	.L55
 275:eeprom.c      ****         {
 276:eeprom.c      ****           i = len;
 277:eeprom.c      ****           retCode = I2C_CODE_ERROR;
 334              		.loc 1 277 0
ARM GAS  C:\Users\embedded\AppData\Local\Temp\ccXlEbX2.s 			page 12


 335 011e 0125     		movs	r5, #1
 336              	.LVL46:
 337 0120 3C00     		movs	r4, r7
 338              	.LVL47:
 339 0122 6D42     		rsbs	r5, r5, #0
 340              	.LVL48:
 341              	.L50:
 243:eeprom.c      ****     {
 342              		.loc 1 243 0 discriminator 2
 343 0124 0134     		adds	r4, r4, #1
 344              	.LVL49:
 345 0126 2404     		lsls	r4, r4, #16
 346 0128 240C     		lsrs	r4, r4, #16
 347              	.LVL50:
 348 012a D9E7     		b	.L43
 349              	.LVL51:
 350              	.L42:
 278:eeprom.c      ****           break;
 279:eeprom.c      ****         }
 280:eeprom.c      ****       }
 281:eeprom.c      ****     }
 282:eeprom.c      ****   }
 283:eeprom.c      **** 
 284:eeprom.c      ****   i2cStop(); //generowanie sygnalu stop
 351              		.loc 1 284 0
 352 012c FFF7FEFF 		bl	i2cStop
 353              	.LVL52:
 285:eeprom.c      **** 
 286:eeprom.c      ****   return retCode;
 287:eeprom.c      **** 
 288:eeprom.c      **** }
 354              		.loc 1 288 0
 355              		@ sp needed
 356 0130 2800     		movs	r0, r5
 357              	.LVL53:
 358              	.LVL54:
 359 0132 F8BC     		pop	{r3, r4, r5, r6, r7}
 360 0134 02BC     		pop	{r1}
 361 0136 0847     		bx	r1
 362              		.cfi_endproc
 363              	.LFE2:
 364              		.size	eepromPageRead, .-eepromPageRead
 365              		.align	1
 366              		.global	eepromWrite
 367              		.code	16
 368              		.thumb_func
 369              		.type	eepromWrite, %function
 370              	eepromWrite:
 371              	.LFB3:
 289:eeprom.c      **** 
 290:eeprom.c      **** tS8 eepromWrite(tU16 addr, tU8* pData, tU16 len)
 291:eeprom.c      **** {
 372              		.loc 1 291 0
 373              		.cfi_startproc
 374              		@ Function supports interworking.
 375              		@ args = 0, pretend = 0, frame = 0
 376              		@ frame_needed = 0, uses_anonymous_args = 0
ARM GAS  C:\Users\embedded\AppData\Local\Temp\ccXlEbX2.s 			page 13


 377              	.LVL55:
 378 0138 F8B5     		push	{r3, r4, r5, r6, r7, lr}
 379              	.LCFI3:
 380              		.cfi_def_cfa_offset 24
 381              		.cfi_offset 3, -24
 382              		.cfi_offset 4, -20
 383              		.cfi_offset 5, -16
 384              		.cfi_offset 6, -12
 385              		.cfi_offset 7, -8
 386              		.cfi_offset 14, -4
 387              		.loc 1 291 0
 388 013a 0700     		movs	r7, r0
 389 013c 0E00     		movs	r6, r1
 390 013e 1500     		movs	r5, r2
 292:eeprom.c      ****   tS8 retCode = 0;
 293:eeprom.c      ****   tU8 i       = 0;
 294:eeprom.c      **** 
 295:eeprom.c      ****   do
 296:eeprom.c      ****   {
 297:eeprom.c      ****     retCode = i2cStart(); // wyslanie komunikatu start
 391              		.loc 1 297 0
 392 0140 FFF7FEFF 		bl	i2cStart
 393              	.LVL56:
 394 0144 0400     		movs	r4, r0
 395              	.LVL57:
 298:eeprom.c      ****     if(retCode != I2C_CODE_OK)
 396              		.loc 1 298 0
 397 0146 0128     		cmp	r0, #1
 398 0148 18D1     		bne	.L60
 299:eeprom.c      ****       break;
 300:eeprom.c      **** 
 301:eeprom.c      **** 
 302:eeprom.c      ****     // zapisz EEPROM I2C adres */
 303:eeprom.c      ****     retCode = i2cWriteWithWait(I2C_EEPROM_ADDR);
 399              		.loc 1 303 0
 400 014a A020     		movs	r0, #160
 401              	.LVL58:
 402 014c FFF7FEFF 		bl	i2cWriteWithWait
 403              	.LVL59:
 404 0150 0400     		movs	r4, r0
 405              	.LVL60:
 304:eeprom.c      ****     if(retCode != I2C_CODE_OK)
 406              		.loc 1 304 0
 407 0152 0128     		cmp	r0, #1
 408 0154 12D1     		bne	.L60
 305:eeprom.c      ****       break;
 306:eeprom.c      **** 
 307:eeprom.c      **** #if 0
 308:eeprom.c      ****     // zapis offsetu high w przestrzeni EEPROM 
 309:eeprom.c      ****     retCode = i2cWriteWithWait( (tU8)(addr >> 8));
 310:eeprom.c      ****     if(retCode != I2C_CODE_OK)
 311:eeprom.c      ****       break;
 312:eeprom.c      **** #endif
 313:eeprom.c      **** 
 314:eeprom.c      ****     // zapis offsetu low w przestrzeni EEPROM 
 315:eeprom.c      ****     retCode = i2cWriteWithWait( (tU8)(addr & 0xFF));
 409              		.loc 1 315 0
ARM GAS  C:\Users\embedded\AppData\Local\Temp\ccXlEbX2.s 			page 14


 410 0156 3806     		lsls	r0, r7, #24
 411              	.LVL61:
 412 0158 000E     		lsrs	r0, r0, #24
 413 015a FFF7FEFF 		bl	i2cWriteWithWait
 414              	.LVL62:
 415 015e 0027     		movs	r7, #0
 416 0160 0400     		movs	r4, r0
 417              	.LVL63:
 316:eeprom.c      ****     if(retCode != I2C_CODE_OK)
 418              		.loc 1 316 0
 419 0162 0128     		cmp	r0, #1
 420 0164 0AD1     		bne	.L60
 421              	.LVL64:
 422              	.L62:
 317:eeprom.c      ****       break;
 318:eeprom.c      **** 
 319:eeprom.c      **** 	// zapis danych
 320:eeprom.c      ****     for(i = 0; i <len; i++) 
 423              		.loc 1 320 0 discriminator 1
 424 0166 3B06     		lsls	r3, r7, #24
 425 0168 1B0E     		lsrs	r3, r3, #24
 426 016a AB42     		cmp	r3, r5
 427 016c 06D2     		bcs	.L60
 321:eeprom.c      ****     {
 322:eeprom.c      ****       retCode = i2cWriteWithWait(*pData);
 428              		.loc 1 322 0
 429 016e F05D     		ldrb	r0, [r6, r7]
 430 0170 FFF7FEFF 		bl	i2cWriteWithWait
 431              	.LVL65:
 432 0174 0137     		adds	r7, r7, #1
 433              	.LVL66:
 323:eeprom.c      ****       if(retCode != I2C_CODE_OK)
 434              		.loc 1 323 0
 435 0176 0128     		cmp	r0, #1
 436 0178 F5D0     		beq	.L62
 322:eeprom.c      ****       if(retCode != I2C_CODE_OK)
 437              		.loc 1 322 0
 438 017a 0400     		movs	r4, r0
 439              	.LVL67:
 440              	.L60:
 324:eeprom.c      ****         break;
 325:eeprom.c      **** 
 326:eeprom.c      ****       pData++;
 327:eeprom.c      ****     }
 328:eeprom.c      **** 
 329:eeprom.c      ****   } while(0);
 330:eeprom.c      **** 
 331:eeprom.c      ****   i2cStop(); //generowanie komunikatu stop
 441              		.loc 1 331 0
 442 017c FFF7FEFF 		bl	i2cStop
 443              	.LVL68:
 332:eeprom.c      **** 
 333:eeprom.c      ****   return retCode;
 334:eeprom.c      **** }
 444              		.loc 1 334 0
 445              		@ sp needed
 446 0180 2000     		movs	r0, r4
ARM GAS  C:\Users\embedded\AppData\Local\Temp\ccXlEbX2.s 			page 15


 447              	.LVL69:
 448 0182 F8BC     		pop	{r3, r4, r5, r6, r7}
 449 0184 02BC     		pop	{r1}
 450 0186 0847     		bx	r1
 451              		.cfi_endproc
 452              	.LFE3:
 453              		.size	eepromWrite, .-eepromWrite
 454              		.align	1
 455              		.global	lm75Read
 456              		.code	16
 457              		.thumb_func
 458              		.type	lm75Read, %function
 459              	lm75Read:
 460              	.LFB4:
 335:eeprom.c      **** /******************************************************************************
 336:eeprom.c      ****  *
 337:eeprom.c      ****  * Opis:
 338:eeprom.c      ****  *    Odczyt temperatury z czujnika LM75
 339:eeprom.c      ****  *
 340:eeprom.c      ****  * Parametry:
 341:eeprom.c      ****  *    devAddr - adres urzadzenia z ktorego odbywa sie odczyt
 342:eeprom.c      ****  *    pBuf    - bufor do przechowywania danych
 343:eeprom.c      ****  *    len     - ilosc przesylanych bajtow
 344:eeprom.c      ****  *
 345:eeprom.c      ****  * Zwraca:
 346:eeprom.c      ****  *    I2C_CODE_OK lub I2C_CODE_ERROR
 347:eeprom.c      ****  *
 348:eeprom.c      ****  *****************************************************************************/
 349:eeprom.c      **** tS8 lm75Read(tU8 address, tU8* pBuf, tU16 len) 
 350:eeprom.c      **** {
 461              		.loc 1 350 0
 462              		.cfi_startproc
 463              		@ Function supports interworking.
 464              		@ args = 0, pretend = 0, frame = 0
 465              		@ frame_needed = 0, uses_anonymous_args = 0
 466              	.LVL70:
 467 0188 F8B5     		push	{r3, r4, r5, r6, r7, lr}
 468              	.LCFI4:
 469              		.cfi_def_cfa_offset 24
 470              		.cfi_offset 3, -24
 471              		.cfi_offset 4, -20
 472              		.cfi_offset 5, -16
 473              		.cfi_offset 6, -12
 474              		.cfi_offset 7, -8
 475              		.cfi_offset 14, -4
 476              		.loc 1 350 0
 477 018a 0E00     		movs	r6, r1
 351:eeprom.c      ****   tS8  retCode = 0;
 352:eeprom.c      ****   tU8  status  = 0;
 353:eeprom.c      ****   tU16 i       = 0;
 354:eeprom.c      **** 
 355:eeprom.c      ****   retCode = eepromStartRead(address, 0);
 478              		.loc 1 355 0
 479 018c 0021     		movs	r1, #0
 480              	.LVL71:
 350:eeprom.c      ****   tS8  retCode = 0;
 481              		.loc 1 350 0
ARM GAS  C:\Users\embedded\AppData\Local\Temp\ccXlEbX2.s 			page 16


 482 018e 1700     		movs	r7, r2
 483              		.loc 1 355 0
 484 0190 FFF7FEFF 		bl	eepromStartRead
 485              	.LVL72:
 486 0194 0500     		movs	r5, r0
 487              	.LVL73:
 488 0196 0400     		movs	r4, r0
 356:eeprom.c      **** 
 357:eeprom.c      ****   if( retCode == I2C_CODE_OK ) 
 489              		.loc 1 357 0
 490 0198 0128     		cmp	r0, #1
 491 019a 25D1     		bne	.L66
 492              	.LVL74:
 493              	.L67:
 358:eeprom.c      ****   {
 359:eeprom.c      ****     for(i = 1; i <= len; i++ ) // oczekuj az adres zostanie wyslany i odbieraj dane
 494              		.loc 1 359 0 discriminator 1
 495 019c BC42     		cmp	r4, r7
 496 019e 23D8     		bhi	.L66
 497              	.L79:
 360:eeprom.c      **** 
 361:eeprom.c      ****     {
 362:eeprom.c      **** 		// oczekuj dopoki dane zostana wyslane
 363:eeprom.c      ****       while(1)
 364:eeprom.c      ****       {
 365:eeprom.c      ****         status = i2cCheckStatus(); //sprawdz status i2c
 498              		.loc 1 365 0
 499 01a0 FFF7FEFF 		bl	i2cCheckStatus
 500              	.LVL75:
 366:eeprom.c      **** 
 367:eeprom.c      ****         if(( status == 0x40 ) || ( status == 0x48 ) || ( status == 0x50 ))
 501              		.loc 1 367 0
 502 01a4 0822     		movs	r2, #8
 503 01a6 0300     		movs	r3, r0
 504 01a8 9343     		bics	r3, r2
 505 01aa 1B06     		lsls	r3, r3, #24
 506 01ac 1B0E     		lsrs	r3, r3, #24
 507 01ae 402B     		cmp	r3, #64
 508 01b0 01D0     		beq	.L68
 509              		.loc 1 367 0 is_stmt 0 discriminator 2
 510 01b2 5028     		cmp	r0, #80
 511 01b4 0FD1     		bne	.L69
 512              	.L68:
 368:eeprom.c      ****         {
 369:eeprom.c      **** 	      // jesli dane otrzymane
 370:eeprom.c      ****           if(i == len )
 371:eeprom.c      ****           {
 372:eeprom.c      ****             retCode = i2cGetChar( I2C_MODE_ACK1, pBuf ); //jesli wszystkie dane odebrane to wysylam
 513              		.loc 1 372 0 is_stmt 1
 514 01b6 3100     		movs	r1, r6
 515 01b8 0120     		movs	r0, #1
 516              	.LVL76:
 370:eeprom.c      ****           {
 517              		.loc 1 370 0
 518 01ba BC42     		cmp	r4, r7
 519 01bc 00D0     		beq	.L82
 520              	.LVL77:
ARM GAS  C:\Users\embedded\AppData\Local\Temp\ccXlEbX2.s 			page 17


 373:eeprom.c      ****           }
 374:eeprom.c      ****           else
 375:eeprom.c      ****           {
 376:eeprom.c      ****             retCode = i2cGetChar( I2C_MODE_ACK0, pBuf ); //jesli nie to wysylamy bit ACK
 521              		.loc 1 376 0
 522 01be 0020     		movs	r0, #0
 523              	.L82:
 524 01c0 FFF7FEFF 		bl	i2cGetChar
 525              	.LVL78:
 526              	.L73:
 377:eeprom.c      ****           }
 378:eeprom.c      **** 		  
 379:eeprom.c      ****           retCode = i2cGetChar( I2C_MODE_READ, pBuf );  //ustawienie trybu odczytu 
 380:eeprom.c      ****          
 381:eeprom.c      **** 		 while( retCode == I2C_CODE_EMPTY )          
 382:eeprom.c      ****           {
 383:eeprom.c      ****             retCode = i2cGetChar( I2C_MODE_READ, pBuf );
 527              		.loc 1 383 0
 528 01c4 3100     		movs	r1, r6
 529 01c6 0220     		movs	r0, #2
 530 01c8 FFF7FEFF 		bl	i2cGetChar
 531              	.LVL79:
 532 01cc 0500     		movs	r5, r0
 533              	.LVL80:
 381:eeprom.c      ****           {
 534              		.loc 1 381 0
 535 01ce C31C     		adds	r3, r0, #3
 536 01d0 F8D0     		beq	.L73
 384:eeprom.c      ****           }
 385:eeprom.c      ****           pBuf++;
 537              		.loc 1 385 0
 538 01d2 0136     		adds	r6, r6, #1
 539              	.LVL81:
 386:eeprom.c      **** 
 387:eeprom.c      ****           break;
 540              		.loc 1 387 0
 541 01d4 04E0     		b	.L74
 542              	.LVL82:
 543              	.L69:
 388:eeprom.c      ****         }
 389:eeprom.c      ****         else if( status != 0xf8 ) //gdy BLAD
 544              		.loc 1 389 0
 545 01d6 F828     		cmp	r0, #248
 546 01d8 E2D0     		beq	.L79
 390:eeprom.c      ****         {
 391:eeprom.c      ****           i = len;
 392:eeprom.c      ****           retCode = I2C_CODE_ERROR;
 547              		.loc 1 392 0
 548 01da 0125     		movs	r5, #1
 549              	.LVL83:
 550 01dc 3C00     		movs	r4, r7
 551              	.LVL84:
 552 01de 6D42     		rsbs	r5, r5, #0
 553              	.LVL85:
 554              	.L74:
 359:eeprom.c      **** 
 555              		.loc 1 359 0 discriminator 2
ARM GAS  C:\Users\embedded\AppData\Local\Temp\ccXlEbX2.s 			page 18


 556 01e0 0134     		adds	r4, r4, #1
 557              	.LVL86:
 558 01e2 2404     		lsls	r4, r4, #16
 559 01e4 240C     		lsrs	r4, r4, #16
 560              	.LVL87:
 561 01e6 D9E7     		b	.L67
 562              	.LVL88:
 563              	.L66:
 393:eeprom.c      ****           break;
 394:eeprom.c      ****         }
 395:eeprom.c      ****       }
 396:eeprom.c      ****     }
 397:eeprom.c      ****   }
 398:eeprom.c      **** 
 399:eeprom.c      ****   i2cStop(); //generowanie komunikatu stop
 564              		.loc 1 399 0
 565 01e8 FFF7FEFF 		bl	i2cStop
 566              	.LVL89:
 400:eeprom.c      **** 
 401:eeprom.c      ****   return retCode;
 402:eeprom.c      **** 
 403:eeprom.c      **** }
 567              		.loc 1 403 0
 568              		@ sp needed
 569 01ec 2800     		movs	r0, r5
 570              	.LVL90:
 571              	.LVL91:
 572 01ee F8BC     		pop	{r3, r4, r5, r6, r7}
 573 01f0 02BC     		pop	{r1}
 574 01f2 0847     		bx	r1
 575              		.cfi_endproc
 576              	.LFE4:
 577              		.size	lm75Read, .-lm75Read
 578              	.Letext0:
 579              		.file 2 "general.h"
 580              		.file 3 "i2c.h"