ARM GAS  C:\Users\embedded\AppData\Local\Temp\ccFOwvpL.s 			page 1


   1              		.syntax unified
   2              		.cpu arm7tdmi
   3              		.fpu softvfp
   4              		.eabi_attribute 20, 1
   5              		.eabi_attribute 21, 1
   6              		.eabi_attribute 23, 3
   7              		.eabi_attribute 24, 1
   8              		.eabi_attribute 25, 1
   9              		.eabi_attribute 26, 1
  10              		.eabi_attribute 30, 4
  11              		.eabi_attribute 34, 0
  12              		.eabi_attribute 18, 4
  13              		.thumb
  14              		.syntax unified
  15              		.file	"i2c.c"
  16              		.text
  17              	.Ltext0:
  18              		.cfi_sections	.debug_frame
  19              		.align	1
  20              		.global	i2cCheckStatus
  21              		.code	16
  22              		.thumb_func
  23              		.type	i2cCheckStatus, %function
  24              	i2cCheckStatus:
  25              	.LFB0:
  26              		.file 1 "i2c.c"
   1:i2c.c         **** 
   2:i2c.c         **** #include "general.h"
   3:i2c.c         **** #include "i2c.h"
   4:i2c.c         **** #include <lpc2xxx.h>
   5:i2c.c         **** 
   6:i2c.c         **** /******************************************************************************
   7:i2c.c         ****  * Defines and typedefs
   8:i2c.c         ****  *****************************************************************************/
   9:i2c.c         **** 
  10:i2c.c         **** #define I2C_CONSET (*((volatile unsigned char *) 0xE001C000))
  11:i2c.c         **** #define I2C_STAT   (*((volatile unsigned char *) 0xE001C004))
  12:i2c.c         **** #define I2C_DATA   (*((volatile unsigned char *) 0xE001C008))
  13:i2c.c         **** #define I2C_ADDR   (*((volatile unsigned char *) 0xE001C00C))
  14:i2c.c         **** #define I2C_SCLH   (*((volatile unsigned short*) 0xE001C010))
  15:i2c.c         **** #define I2C_SCLL   (*((volatile unsigned short*) 0xE001C014))
  16:i2c.c         **** #define I2C_CONCLR (*((volatile unsigned char *) 0xE001C018))
  17:i2c.c         **** 
  18:i2c.c         **** #define I2C_REG_CONSET      0x00000040 // Control Set Register        
  19:i2c.c         **** #define I2C_REG_CONSET_MASK 0x0000007C // Used bits                   
  20:i2c.c         **** #define I2C_REG_DATA        0x00000000 // Rejestr danych
  21:i2c.c         **** #define I2C_REG_DATA_MASK   0x000000FF // Used bits                 
  22:i2c.c         **** #define I2C_REG_ADDR        0x00000000 // Rejestr adresu urzadzenia slave
  23:i2c.c         **** #define I2C_REG_ADDR_MASK   0x000000FF // Used bits                   
  24:i2c.c         **** #define I2C_REG_SCLH        0x00000040 // SCL Duty Cycle high register 
  25:i2c.c         **** #define I2C_REG_SCLH_MASK   0x0000FFFF // Used bits                   
  26:i2c.c         **** #define I2C_REG_SCLL        0x00000040 // SCL Duty Cycle low register  
  27:i2c.c         **** #define I2C_REG_SCLL_MASK   0x0000FFFF // Used bits                    
  28:i2c.c         **** 
  29:i2c.c         **** /******************************************************************************
  30:i2c.c         ****  *
  31:i2c.c         ****  * Opis:
ARM GAS  C:\Users\embedded\AppData\Local\Temp\ccFOwvpL.s 			page 2


  32:i2c.c         ****  *    Sprawdzenie statusu transmisji przez i2c.
  33:i2c.c         ****  *
  34:i2c.c         ****  *  Zwraca:
  35:i2c.c         ****  *      00h Blad magistrali
  36:i2c.c         ****  *      08h START komunikat przeslany
  37:i2c.c         ****  *      10h Repeated START condition przeslany
  38:i2c.c         ****  *      18h SLA + W przeslany, ACK otrzymany
  39:i2c.c         ****  *      20h SLA + W przeslany, ACK nie otrzymany
  40:i2c.c         ****  *      28h Bajt danych przeslany, ACK otrzymany
  41:i2c.c         ****  *      30h Bajt danych przeslany, ACK nie otrzymany
  42:i2c.c         ****  *      38h Arbitration lost
  43:i2c.c         ****  *      40h SLA + R przeslany, ACK otrzymany
  44:i2c.c         ****  *      48h SLA + R przeslany, ACK nie otrzymany
  45:i2c.c         ****  *      50h Bajt danych otrzymany w master mode, ACK przeslany
  46:i2c.c         ****  *      58h Bajt danych otrzymany w master mode, ACK nie przeslany
  47:i2c.c         ****  *      60h SLA + W otrzymany, ACK przeslany
  48:i2c.c         ****  *      68h Arbitration lost, SLA + W otrzymany, ACK przeslany
  49:i2c.c         ****  *      70h General call address otrzymany, ACK przeslany
  50:i2c.c         ****  *      78h Arbitration lost, general call addr otrzymany, ACK przeslany
  51:i2c.c         ****  *      80h Bajt danych otrzymany with own SLA, ACK przeslany
  52:i2c.c         ****  *      88h Bajt danych otrzymany with own SLA, ACK nie przeslany
  53:i2c.c         ****  *      90h Bajt danych otrzymany after general call, ACK przeslany
  54:i2c.c         ****  *      98h Bajt danych otrzymany after general call, ACK nie przeslany
  55:i2c.c         ****  *      A0h STOP or repeated START condition otrzymany w trybie slave
  56:i2c.c         ****  *      A8h SLA + R otrzymany, ACK przeslany
  57:i2c.c         ****  *      B0h Arbitration lost, SLA + R otrzymany, ACK przeslany
  58:i2c.c         ****  *      B8h Bajt danych przeslany w trybie slave, ACK otrzymany
  59:i2c.c         ****  *      C0h Bajt danych przeslany w trybie slave, ACK nie otrzymany
  60:i2c.c         ****  *      C8h Ostatni bajt przeslany w trybie slave, ACK otrzymany
  61:i2c.c         ****  *      F8h No relevant status information, SI=0
  62:i2c.c         ****  *      FFh BLAD
  63:i2c.c         ****  *
  64:i2c.c         ****  *****************************************************************************/
  65:i2c.c         **** tU8 i2cCheckStatus(void)
  66:i2c.c         **** {
  27              		.loc 1 66 0
  28              		.cfi_startproc
  29              		@ Function supports interworking.
  30              		@ args = 0, pretend = 0, frame = 0
  31              		@ frame_needed = 0, uses_anonymous_args = 0
  32              		@ link register save eliminated.
  33              	.LVL0:
  67:i2c.c         ****   tU8 status = 0;
  68:i2c.c         ****   
  69:i2c.c         ****   while( (I2C_CONSET & 0x08)  == 0)   // dopoki flaga przerwan == 0, oczekiwanie na zmiane statusu 
  34              		.loc 1 69 0
  35 0000 0823     		movs	r3, #8
  36 0002 0349     		ldr	r1, .L6
  37              	.L2:
  38              		.loc 1 69 0 is_stmt 0 discriminator 1
  39 0004 0A78     		ldrb	r2, [r1]
  40 0006 1A42     		tst	r2, r3
  41 0008 FCD0     		beq	.L2
  70:i2c.c         ****   {
  71:i2c.c         ****     ;
  72:i2c.c         ****   }
  73:i2c.c         **** 
ARM GAS  C:\Users\embedded\AppData\Local\Temp\ccFOwvpL.s 			page 3


  74:i2c.c         ****   status = I2C_STAT; //odczytanie statusu i wpisanie do zmiennej (flaga nie jest czyszczona tutaj!)
  42              		.loc 1 74 0 is_stmt 1
  43 000a 024B     		ldr	r3, .L6+4
  75:i2c.c         **** 
  76:i2c.c         ****   return status;
  77:i2c.c         **** }
  44              		.loc 1 77 0
  45              		@ sp needed
  74:i2c.c         **** 
  46              		.loc 1 74 0
  47 000c 1878     		ldrb	r0, [r3]
  48              	.LVL1:
  49              		.loc 1 77 0
  50 000e 7047     		bx	lr
  51              	.L7:
  52              		.align	2
  53              	.L6:
  54 0010 00C001E0 		.word	-536756224
  55 0014 04C001E0 		.word	-536756220
  56              		.cfi_endproc
  57              	.LFE0:
  58              		.size	i2cCheckStatus, .-i2cCheckStatus
  59              		.align	1
  60              		.global	i2cInit
  61              		.code	16
  62              		.thumb_func
  63              		.type	i2cInit, %function
  64              	i2cInit:
  65              	.LFB1:
  78:i2c.c         **** 
  79:i2c.c         **** /******************************************************************************
  80:i2c.c         ****  *
  81:i2c.c         ****  * Opis:
  82:i2c.c         ****  *    Zainicjowanie magistrali i2c.
  83:i2c.c         ****  *
  84:i2c.c         ****  *****************************************************************************/
  85:i2c.c         **** void i2cInit(void)
  86:i2c.c         **** {
  66              		.loc 1 86 0
  67              		.cfi_startproc
  68              		@ Function supports interworking.
  69              		@ args = 0, pretend = 0, frame = 0
  70              		@ frame_needed = 0, uses_anonymous_args = 0
  71              		@ link register save eliminated.
  87:i2c.c         ****   PINSEL0  |= 0x50;
  72              		.loc 1 87 0
  73 0018 5021     		movs	r1, #80
  74 001a 0C4A     		ldr	r2, .L9
  75 001c 1368     		ldr	r3, [r2]
  76 001e 0B43     		orrs	r3, r1
  77 0020 1360     		str	r3, [r2]
  88:i2c.c         **** 
  89:i2c.c         ****   I2C_CONCLR = 0x6c;    //czyszczenie flag
  78              		.loc 1 89 0
  79 0022 6C22     		movs	r2, #108
  80 0024 0A4B     		ldr	r3, .L9+4
  81 0026 1A70     		strb	r2, [r3]
ARM GAS  C:\Users\embedded\AppData\Local\Temp\ccFOwvpL.s 			page 4


  90:i2c.c         **** 
  91:i2c.c         ****   I2C_SCLL   = ( I2C_SCLL   & ~I2C_REG_SCLL_MASK )   | I2C_REG_SCLL; //reset rejestrow
  82              		.loc 1 91 0
  83 0028 0A4B     		ldr	r3, .L9+8
  84 002a 1A88     		ldrh	r2, [r3]
  85 002c 4022     		movs	r2, #64
  86 002e 1A80     		strh	r2, [r3]
  92:i2c.c         ****   I2C_SCLH   = ( I2C_SCLH   & ~I2C_REG_SCLH_MASK )   | I2C_REG_SCLH;
  87              		.loc 1 92 0
  88 0030 094B     		ldr	r3, .L9+12
  89 0032 1988     		ldrh	r1, [r3]
  90 0034 1A80     		strh	r2, [r3]
  93:i2c.c         ****   I2C_ADDR   = ( I2C_ADDR   & ~I2C_REG_ADDR_MASK )   | I2C_REG_ADDR;
  91              		.loc 1 93 0
  92 0036 094B     		ldr	r3, .L9+16
  93 0038 1978     		ldrb	r1, [r3]
  94 003a 0021     		movs	r1, #0
  94:i2c.c         ****   I2C_CONSET = ( I2C_CONSET & ~I2C_REG_CONSET_MASK ) | I2C_REG_CONSET;
  95              		.loc 1 94 0
  96 003c 7C20     		movs	r0, #124
  93:i2c.c         ****   I2C_ADDR   = ( I2C_ADDR   & ~I2C_REG_ADDR_MASK )   | I2C_REG_ADDR;
  97              		.loc 1 93 0
  98 003e 1970     		strb	r1, [r3]
  99              		.loc 1 94 0
 100 0040 0749     		ldr	r1, .L9+20
 101 0042 0B78     		ldrb	r3, [r1]
 102 0044 8343     		bics	r3, r0
 103 0046 1343     		orrs	r3, r2
 104 0048 0B70     		strb	r3, [r1]
  95:i2c.c         **** }
 105              		.loc 1 95 0
 106              		@ sp needed
 107 004a 7047     		bx	lr
 108              	.L10:
 109              		.align	2
 110              	.L9:
 111 004c 00C002E0 		.word	-536690688
 112 0050 18C001E0 		.word	-536756200
 113 0054 14C001E0 		.word	-536756204
 114 0058 10C001E0 		.word	-536756208
 115 005c 0CC001E0 		.word	-536756212
 116 0060 00C001E0 		.word	-536756224
 117              		.cfi_endproc
 118              	.LFE1:
 119              		.size	i2cInit, .-i2cInit
 120              		.align	1
 121              		.global	i2cStart
 122              		.code	16
 123              		.thumb_func
 124              		.type	i2cStart, %function
 125              	i2cStart:
 126              	.LFB2:
  96:i2c.c         **** 
  97:i2c.c         **** /******************************************************************************
  98:i2c.c         ****  *
  99:i2c.c         ****  * Opis:
 100:i2c.c         ****  *    Generuje komunikat startu kiedy I2C jest wolna.
ARM GAS  C:\Users\embedded\AppData\Local\Temp\ccFOwvpL.s 			page 5


 101:i2c.c         ****  *
 102:i2c.c         ****  * Zwraca:
 103:i2c.c         ****  *    I2C_CODE_OK lun kod statusu i2c.
 104:i2c.c         ****  *
 105:i2c.c         ****  *****************************************************************************/
 106:i2c.c         **** tS8
 107:i2c.c         **** i2cStart(void)
 108:i2c.c         **** {
 127              		.loc 1 108 0
 128              		.cfi_startproc
 129              		@ Function supports interworking.
 130              		@ args = 0, pretend = 0, frame = 0
 131              		@ frame_needed = 0, uses_anonymous_args = 0
 132              	.LVL2:
 109:i2c.c         ****   tU8   status  = 0;
 110:i2c.c         ****   tS8   retCode = 0;
 111:i2c.c         **** 
 112:i2c.c         ****   I2C_CONSET |= 0x20; // ustawienie flagi startu na 1
 133              		.loc 1 112 0
 134 0064 2021     		movs	r1, #32
 108:i2c.c         ****   tU8   status  = 0;
 135              		.loc 1 108 0
 136 0066 10B5     		push	{r4, lr}
 137              	.LCFI0:
 138              		.cfi_def_cfa_offset 8
 139              		.cfi_offset 4, -8
 140              		.cfi_offset 14, -4
 113:i2c.c         **** 
 114:i2c.c         ****   while(1)   // czekaj dopoki wyslany zostanie komunikat startu
 115:i2c.c         ****   {
 116:i2c.c         ****     status = i2cCheckStatus(); //odczytanie obecnego statusu i2c
 117:i2c.c         **** 
 118:i2c.c         ****     if((status == 0x08) || (status == 0x10)) //czy komunikat start zostal wyslany
 141              		.loc 1 118 0
 142 0068 0824     		movs	r4, #8
 112:i2c.c         **** 
 143              		.loc 1 112 0
 144 006a 0D4A     		ldr	r2, .L16
 145 006c 1378     		ldrb	r3, [r2]
 146 006e 0B43     		orrs	r3, r1
 147 0070 1370     		strb	r3, [r2]
 148              	.LVL3:
 149              	.L14:
 116:i2c.c         **** 
 150              		.loc 1 116 0
 151 0072 FFF7FEFF 		bl	i2cCheckStatus
 152              	.LVL4:
 153              		.loc 1 118 0
 154 0076 0300     		movs	r3, r0
 155 0078 083B     		subs	r3, r3, #8
 156 007a A343     		bics	r3, r4
 157 007c 1B06     		lsls	r3, r3, #24
 158 007e 1B0E     		lsrs	r3, r3, #24
 159 0080 084A     		ldr	r2, .L16+4
 160 0082 06D0     		beq	.L15
 119:i2c.c         ****     {
 120:i2c.c         ****       retCode = I2C_CODE_OK; 
ARM GAS  C:\Users\embedded\AppData\Local\Temp\ccFOwvpL.s 			page 6


 121:i2c.c         ****       break;
 122:i2c.c         ****     }
 123:i2c.c         **** 
 124:i2c.c         ****     else if(status != 0xf8) //BLAD
 161              		.loc 1 124 0
 162 0084 F828     		cmp	r0, #248
 163 0086 02D0     		beq	.L13
 125:i2c.c         ****     {
 126:i2c.c         ****       retCode = (tS8) status;
 164              		.loc 1 126 0
 165 0088 0006     		lsls	r0, r0, #24
 166              	.LVL5:
 167 008a 0016     		asrs	r0, r0, #24
 168              	.LVL6:
 127:i2c.c         ****       break;
 169              		.loc 1 127 0
 170 008c 02E0     		b	.L12
 171              	.LVL7:
 172              	.L13:
 128:i2c.c         ****     }
 129:i2c.c         **** 
 130:i2c.c         ****     else
 131:i2c.c         ****     {
 132:i2c.c         ****       I2C_CONCLR = 0x08; //czyszczenie flagi SI w przypadku gdy odczytany status nie odpowiada zadn
 173              		.loc 1 132 0
 174 008e 1470     		strb	r4, [r2]
 133:i2c.c         ****     }    
 134:i2c.c         ****   }
 175              		.loc 1 134 0
 176 0090 EFE7     		b	.L14
 177              	.L15:
 120:i2c.c         ****       break;
 178              		.loc 1 120 0
 179 0092 0120     		movs	r0, #1
 180              	.LVL8:
 181              	.L12:
 135:i2c.c         **** 
 136:i2c.c         ****   I2C_CONCLR = 0x20; //czyszczenie flagi startu
 182              		.loc 1 136 0
 183 0094 2023     		movs	r3, #32
 137:i2c.c         **** 
 138:i2c.c         ****   return retCode;
 139:i2c.c         **** }
 184              		.loc 1 139 0
 185              		@ sp needed
 136:i2c.c         **** 
 186              		.loc 1 136 0
 187 0096 1370     		strb	r3, [r2]
 188              		.loc 1 139 0
 189 0098 10BC     		pop	{r4}
 190 009a 02BC     		pop	{r1}
 191 009c 0847     		bx	r1
 192              	.L17:
 193 009e C046     		.align	2
 194              	.L16:
 195 00a0 00C001E0 		.word	-536756224
 196 00a4 18C001E0 		.word	-536756200
ARM GAS  C:\Users\embedded\AppData\Local\Temp\ccFOwvpL.s 			page 7


 197              		.cfi_endproc
 198              	.LFE2:
 199              		.size	i2cStart, .-i2cStart
 200              		.align	1
 201              		.global	i2cRepeatStart
 202              		.code	16
 203              		.thumb_func
 204              		.type	i2cRepeatStart, %function
 205              	i2cRepeatStart:
 206              	.LFB3:
 140:i2c.c         **** 
 141:i2c.c         **** /******************************************************************************
 142:i2c.c         ****  *
 143:i2c.c         ****  * Opis:
 144:i2c.c         ****  *    Generuje komunikat startu gdy i2c jest wolne
 145:i2c.c         ****  *
 146:i2c.c         ****  * Zwraca:
 147:i2c.c         ****  *    I2C_CODE_OK lub kod statusu i2c
 148:i2c.c         ****  *
 149:i2c.c         ****  *****************************************************************************/
 150:i2c.c         **** tS8 i2cRepeatStart(void)
 151:i2c.c         **** {
 207              		.loc 1 151 0
 208              		.cfi_startproc
 209              		@ Function supports interworking.
 210              		@ args = 0, pretend = 0, frame = 0
 211              		@ frame_needed = 0, uses_anonymous_args = 0
 212              	.LVL9:
 152:i2c.c         ****   tU8   status  = 0;
 153:i2c.c         ****   tS8   retCode = 0;
 154:i2c.c         **** 
 155:i2c.c         ****   I2C_CONSET |= 0x20; // ustawienie flagi startu na 1
 213              		.loc 1 155 0
 214 00a8 2021     		movs	r1, #32
 151:i2c.c         ****   tU8   status  = 0;
 215              		.loc 1 151 0
 216 00aa 70B5     		push	{r4, r5, r6, lr}
 217              	.LCFI1:
 218              		.cfi_def_cfa_offset 16
 219              		.cfi_offset 4, -16
 220              		.cfi_offset 5, -12
 221              		.cfi_offset 6, -8
 222              		.cfi_offset 14, -4
 156:i2c.c         ****   I2C_CONCLR = 0x08;  // wyczyszczenie flagi przerwan
 223              		.loc 1 156 0
 224 00ac 0825     		movs	r5, #8
 155:i2c.c         ****   I2C_CONCLR = 0x08;  // wyczyszczenie flagi przerwan
 225              		.loc 1 155 0
 226 00ae 0C4A     		ldr	r2, .L24
 227 00b0 1378     		ldrb	r3, [r2]
 228 00b2 0B43     		orrs	r3, r1
 229 00b4 1370     		strb	r3, [r2]
 230              		.loc 1 156 0
 231 00b6 0B4C     		ldr	r4, .L24+4
 232              	.LVL10:
 233              	.L23:
 234 00b8 2570     		strb	r5, [r4]
ARM GAS  C:\Users\embedded\AppData\Local\Temp\ccFOwvpL.s 			page 8


 157:i2c.c         **** 
 158:i2c.c         ****   while(1) // czekaj dopoki wyslany zostanie komunikat startu
 159:i2c.c         ****   {
 160:i2c.c         ****     status = i2cCheckStatus(); //pobranie aktualnego statusu i2c
 235              		.loc 1 160 0
 236 00ba FFF7FEFF 		bl	i2cCheckStatus
 237              	.LVL11:
 161:i2c.c         **** 
 162:i2c.c         ****     if((status == 0x08) || (status == 0x10)) //sprawdzenie czy status ustawiony na start
 238              		.loc 1 162 0
 239 00be 0300     		movs	r3, r0
 240 00c0 083B     		subs	r3, r3, #8
 241 00c2 AB43     		bics	r3, r5
 242 00c4 1B06     		lsls	r3, r3, #24
 243 00c6 1B0E     		lsrs	r3, r3, #24
 244 00c8 04D0     		beq	.L22
 163:i2c.c         ****     {
 164:i2c.c         ****       retCode = I2C_CODE_OK;
 165:i2c.c         ****       break;
 166:i2c.c         ****     }
 167:i2c.c         **** 
 168:i2c.c         ****     else if(status != 0xf8) //BLAD
 245              		.loc 1 168 0
 246 00ca F828     		cmp	r0, #248
 247 00cc F4D0     		beq	.L23
 169:i2c.c         ****     {
 170:i2c.c         ****       retCode = (tS8) status;
 248              		.loc 1 170 0
 249 00ce 0006     		lsls	r0, r0, #24
 250              	.LVL12:
 251 00d0 0016     		asrs	r0, r0, #24
 252              	.LVL13:
 171:i2c.c         ****       break;
 253              		.loc 1 171 0
 254 00d2 00E0     		b	.L19
 255              	.LVL14:
 256              	.L22:
 164:i2c.c         ****       break;
 257              		.loc 1 164 0
 258 00d4 0120     		movs	r0, #1
 259              	.LVL15:
 260              	.L19:
 172:i2c.c         ****     }
 173:i2c.c         **** 
 174:i2c.c         ****     else
 175:i2c.c         ****     {
 176:i2c.c         ****       I2C_CONCLR = 0x08; // wyczyszczenie flagi przerwan
 177:i2c.c         ****     }    
 178:i2c.c         ****   }
 179:i2c.c         **** 
 180:i2c.c         ****   I2C_CONCLR = 0x20; //wyczyszczenie flagi startu
 261              		.loc 1 180 0
 262 00d6 2023     		movs	r3, #32
 181:i2c.c         **** 
 182:i2c.c         ****   return retCode;
 183:i2c.c         **** }
 263              		.loc 1 183 0
ARM GAS  C:\Users\embedded\AppData\Local\Temp\ccFOwvpL.s 			page 9


 264              		@ sp needed
 180:i2c.c         **** 
 265              		.loc 1 180 0
 266 00d8 2370     		strb	r3, [r4]
 267              		.loc 1 183 0
 268 00da 70BC     		pop	{r4, r5, r6}
 269 00dc 02BC     		pop	{r1}
 270 00de 0847     		bx	r1
 271              	.L25:
 272              		.align	2
 273              	.L24:
 274 00e0 00C001E0 		.word	-536756224
 275 00e4 18C001E0 		.word	-536756200
 276              		.cfi_endproc
 277              	.LFE3:
 278              		.size	i2cRepeatStart, .-i2cRepeatStart
 279              		.align	1
 280              		.global	i2cStop
 281              		.code	16
 282              		.thumb_func
 283              		.type	i2cStop, %function
 284              	i2cStop:
 285              	.LFB4:
 184:i2c.c         **** 
 185:i2c.c         **** /******************************************************************************
 186:i2c.c         ****  *
 187:i2c.c         ****  * Opis:
 188:i2c.c         ****  *    Generuje stop
 189:i2c.c         ****  *
 190:i2c.c         ****  * Zwraca:
 191:i2c.c         ****  *    I2C_CODE_OK
 192:i2c.c         ****  *
 193:i2c.c         ****  *****************************************************************************/
 194:i2c.c         **** tS8 i2cStop(void)
 195:i2c.c         **** {
 286              		.loc 1 195 0
 287              		.cfi_startproc
 288              		@ Function supports interworking.
 289              		@ args = 0, pretend = 0, frame = 0
 290              		@ frame_needed = 0, uses_anonymous_args = 0
 291              		@ link register save eliminated.
 196:i2c.c         ****   I2C_CONSET |= 0x10; // STO = 1, ustawienie flagi stop 
 292              		.loc 1 196 0
 293 00e8 1022     		movs	r2, #16
 197:i2c.c         ****   I2C_CONCLR = 0x08;  // czysczenie flagi SI   
 294              		.loc 1 197 0
 295 00ea 0820     		movs	r0, #8
 196:i2c.c         ****   I2C_CONSET |= 0x10; // STO = 1, ustawienie flagi stop 
 296              		.loc 1 196 0
 297 00ec 054B     		ldr	r3, .L29
 298 00ee 1978     		ldrb	r1, [r3]
 299 00f0 1143     		orrs	r1, r2
 300 00f2 1970     		strb	r1, [r3]
 301              		.loc 1 197 0
 302 00f4 0449     		ldr	r1, .L29+4
 303 00f6 0870     		strb	r0, [r1]
 304              	.L27:
ARM GAS  C:\Users\embedded\AppData\Local\Temp\ccFOwvpL.s 			page 10


 198:i2c.c         **** 
 199:i2c.c         ****   while((I2C_CONSET & 0x10) == 0x10 ) //oczekiwanie do wykrycia komunikatu stop
 305              		.loc 1 199 0 discriminator 1
 306 00f8 1978     		ldrb	r1, [r3]
 307 00fa 1142     		tst	r1, r2
 308 00fc FCD1     		bne	.L27
 200:i2c.c         ****   {
 201:i2c.c         ****     ;
 202:i2c.c         ****   }
 203:i2c.c         **** 
 204:i2c.c         ****   return I2C_CODE_OK;
 205:i2c.c         **** }
 309              		.loc 1 205 0
 310 00fe 0120     		movs	r0, #1
 311              		@ sp needed
 312 0100 7047     		bx	lr
 313              	.L30:
 314 0102 C046     		.align	2
 315              	.L29:
 316 0104 00C001E0 		.word	-536756224
 317 0108 18C001E0 		.word	-536756200
 318              		.cfi_endproc
 319              	.LFE4:
 320              		.size	i2cStop, .-i2cStop
 321              		.align	1
 322              		.global	i2cPutChar
 323              		.code	16
 324              		.thumb_func
 325              		.type	i2cPutChar, %function
 326              	i2cPutChar:
 327              	.LFB5:
 206:i2c.c         **** 
 207:i2c.c         **** /******************************************************************************
 208:i2c.c         ****  *
 209:i2c.c         ****  * Opis:
 210:i2c.c         ****  *    Wyslanie znaku przez magistrale 
 211:i2c.c         ****  *
 212:i2c.c         ****  * Parametry:
 213:i2c.c         ****  *     data - znak ktory chcemy wyslac
 214:i2c.c         ****  *
 215:i2c.c         ****  * Zwraca:
 216:i2c.c         ****  *    I2C_CODE_OK   - powodzenie wyslania znaku
 217:i2c.c         ****  *    I2C_CODE_BUSY - rejestr danych nie jest gotowy
 218:i2c.c         ****  *
 219:i2c.c         ****  *****************************************************************************/
 220:i2c.c         **** tS8 i2cPutChar(tU8 data)
 221:i2c.c         **** {
 328              		.loc 1 221 0
 329              		.cfi_startproc
 330              		@ Function supports interworking.
 331              		@ args = 0, pretend = 0, frame = 0
 332              		@ frame_needed = 0, uses_anonymous_args = 0
 333              		@ link register save eliminated.
 334              	.LVL16:
 222:i2c.c         ****   tS8 retCode = 0;
 223:i2c.c         **** 
 224:i2c.c         ****   if((I2C_CONSET & 0x08) != 0)  //sprawdzenie czy SI = 1 (czy mozna uzyskac dostep do rejestru dany
ARM GAS  C:\Users\embedded\AppData\Local\Temp\ccFOwvpL.s 			page 11


 335              		.loc 1 224 0
 336 010c 064B     		ldr	r3, .L34
 337 010e 1A78     		ldrb	r2, [r3]
 338 0110 0823     		movs	r3, #8
 339 0112 1A42     		tst	r2, r3
 340 0114 05D0     		beq	.L33
 225:i2c.c         ****   {
 226:i2c.c         ****     I2C_DATA   = data; 			//wyslane znaku
 341              		.loc 1 226 0
 342 0116 054A     		ldr	r2, .L34+4
 343 0118 1070     		strb	r0, [r2]
 227:i2c.c         ****     I2C_CONCLR = 0x08; 			//czysczenie flagi SI
 344              		.loc 1 227 0
 345 011a 054A     		ldr	r2, .L34+8
 228:i2c.c         ****     retCode    = I2C_CODE_OK;   //powodzenie wyslania
 346              		.loc 1 228 0
 347 011c 0120     		movs	r0, #1
 348              	.LVL17:
 227:i2c.c         ****     I2C_CONCLR = 0x08; 			//czysczenie flagi SI
 349              		.loc 1 227 0
 350 011e 1370     		strb	r3, [r2]
 351              	.LVL18:
 352 0120 01E0     		b	.L32
 353              	.LVL19:
 354              	.L33:
 229:i2c.c         ****   }
 230:i2c.c         ****   else
 231:i2c.c         ****   {
 232:i2c.c         ****     retCode = I2C_CODE_BUSY;    //gdy rejestr danych jest zajety
 355              		.loc 1 232 0
 356 0122 0420     		movs	r0, #4
 357              	.LVL20:
 358 0124 4042     		rsbs	r0, r0, #0
 359              	.LVL21:
 360              	.L32:
 233:i2c.c         ****   }
 234:i2c.c         **** 
 235:i2c.c         ****   return retCode;
 236:i2c.c         **** }
 361              		.loc 1 236 0
 362              		@ sp needed
 363 0126 7047     		bx	lr
 364              	.L35:
 365              		.align	2
 366              	.L34:
 367 0128 00C001E0 		.word	-536756224
 368 012c 08C001E0 		.word	-536756216
 369 0130 18C001E0 		.word	-536756200
 370              		.cfi_endproc
 371              	.LFE5:
 372              		.size	i2cPutChar, .-i2cPutChar
 373              		.align	1
 374              		.global	i2cGetChar
 375              		.code	16
 376              		.thumb_func
 377              		.type	i2cGetChar, %function
 378              	i2cGetChar:
ARM GAS  C:\Users\embedded\AppData\Local\Temp\ccFOwvpL.s 			page 12


 379              	.LFB6:
 237:i2c.c         **** 
 238:i2c.c         **** /******************************************************************************
 239:i2c.c         ****  *
 240:i2c.c         ****  * Opis:
 241:i2c.c         ****  *    Odczytanie znaku z rejestru danych
 242:i2c.c         ****  *
 243:i2c.c         ****  * Parametry:
 244:i2c.c         ****  *     mode  - I2C_MODE_ACK0 ustawia ACK=0. Slave wysyla kolejny bajt
 245:i2c.c         ****  *             I2C_MODE_ACK1 ustawia ACK=1. Slave wysyla ostatni bajt
 246:i2c.c         ****  *             I2C_MODE_READ tryb odczytu danych z rejestru danych
 247:i2c.c         ****  *     pData - wskaznik na zmienna gdzie zapisujemy odczytane dane
 248:i2c.c         ****  *
 249:i2c.c         ****  * Zwraca:
 250:i2c.c         ****  *    I2C_CODE_OK    - powodzenie
 251:i2c.c         ****  *    I2C_CODE_EMPTY - brak danych w rejestrze
 252:i2c.c         ****  *
 253:i2c.c         ****  *****************************************************************************/
 254:i2c.c         **** tS8 i2cGetChar(tU8  mode, tU8* pData)
 255:i2c.c         **** {
 380              		.loc 1 255 0
 381              		.cfi_startproc
 382              		@ Function supports interworking.
 383              		@ args = 0, pretend = 0, frame = 0
 384              		@ frame_needed = 0, uses_anonymous_args = 0
 385              		@ link register save eliminated.
 386              	.LVL22:
 256:i2c.c         ****   tS8 retCode = I2C_CODE_OK;
 257:i2c.c         **** 
 258:i2c.c         ****   if(mode == I2C_MODE_ACK0)
 387              		.loc 1 258 0
 388 0134 0028     		cmp	r0, #0
 389 0136 09D1     		bne	.L37
 259:i2c.c         ****   {
 260:i2c.c         ****     //tryb master zmieniony z transmisji na odbiór
 261:i2c.c         **** 
 262:i2c.c         ****     I2C_CONSET |= 0x04; //ustawienie ACK=0 (informacja dla slave aby ten wyslal kolejny bajt)
 390              		.loc 1 262 0
 391 0138 0421     		movs	r1, #4
 392              	.LVL23:
 393 013a 0F4A     		ldr	r2, .L43
 394 013c 1378     		ldrb	r3, [r2]
 395 013e 0B43     		orrs	r3, r1
 396 0140 1370     		strb	r3, [r2]
 263:i2c.c         ****     I2C_CONCLR = 0x08;  //czyszczenie flagi przerwan
 397              		.loc 1 263 0
 398 0142 0822     		movs	r2, #8
 399 0144 0D4B     		ldr	r3, .L43+4
 400              	.L42:
 401 0146 1A70     		strb	r2, [r3]
 256:i2c.c         ****   tS8 retCode = I2C_CODE_OK;
 402              		.loc 1 256 0
 403 0148 0123     		movs	r3, #1
 404 014a 13E0     		b	.L38
 405              	.LVL24:
 406              	.L37:
 264:i2c.c         ****   }
ARM GAS  C:\Users\embedded\AppData\Local\Temp\ccFOwvpL.s 			page 13


 265:i2c.c         ****   else if(mode == I2C_MODE_ACK1)
 407              		.loc 1 265 0
 408 014c 0128     		cmp	r0, #1
 409 014e 04D1     		bne	.L39
 266:i2c.c         ****   {
 267:i2c.c         ****     I2C_CONCLR = 0x04; // ustawia ACK=1 (informacja dla slave aby wyslal ostatni bajt danych)
 410              		.loc 1 267 0
 411 0150 0422     		movs	r2, #4
 412 0152 0A4B     		ldr	r3, .L43+4
 413 0154 1A70     		strb	r2, [r3]
 268:i2c.c         ****     I2C_CONCLR = 0x08; 
 414              		.loc 1 268 0
 415 0156 9218     		adds	r2, r2, r2
 416 0158 F5E7     		b	.L42
 417              	.L39:
 256:i2c.c         **** 
 418              		.loc 1 256 0
 419 015a 0123     		movs	r3, #1
 269:i2c.c         ****   }
 270:i2c.c         ****   else if(mode == I2C_MODE_READ) //sprawdzenie czy tryb master jest ustawiony na odczyt
 420              		.loc 1 270 0
 421 015c 0228     		cmp	r0, #2
 422 015e 09D1     		bne	.L38
 423              	.LVL25:
 424              	.LBB12:
 425              	.LBB13:
 271:i2c.c         ****   {
 272:i2c.c         ****     if((I2C_CONSET & 0x08) != 0)  // sprawdzenie czy rejestr danych jest dostepny
 426              		.loc 1 272 0
 427 0160 054A     		ldr	r2, .L43
 428 0162 1278     		ldrb	r2, [r2]
 429 0164 1207     		lsls	r2, r2, #28
 430 0166 03D5     		bpl	.L41
 273:i2c.c         ****     {
 274:i2c.c         ****       *pData = (tU8) I2C_DATA;  //odczytanie znaku z rejestru danych, przepisanie do zmiennej
 431              		.loc 1 274 0
 432 0168 054A     		ldr	r2, .L43+8
 433 016a 1278     		ldrb	r2, [r2]
 434 016c 0A70     		strb	r2, [r1]
 435 016e 01E0     		b	.L38
 436              	.L41:
 275:i2c.c         ****     }
 276:i2c.c         ****     else
 277:i2c.c         ****     {
 278:i2c.c         ****       retCode = I2C_CODE_EMPTY; //brak dostepnych danych do odczytu
 437              		.loc 1 278 0
 438 0170 0323     		movs	r3, #3
 439 0172 5B42     		rsbs	r3, r3, #0
 440              	.LVL26:
 441              	.L38:
 442              	.LBE13:
 443              	.LBE12:
 279:i2c.c         ****     }
 280:i2c.c         ****   }
 281:i2c.c         **** 
 282:i2c.c         ****   return retCode;
 283:i2c.c         **** }
ARM GAS  C:\Users\embedded\AppData\Local\Temp\ccFOwvpL.s 			page 14


 444              		.loc 1 283 0
 445 0174 1800     		movs	r0, r3
 446              	.LVL27:
 447              		@ sp needed
 448 0176 7047     		bx	lr
 449              	.L44:
 450              		.align	2
 451              	.L43:
 452 0178 00C001E0 		.word	-536756224
 453 017c 18C001E0 		.word	-536756200
 454 0180 08C001E0 		.word	-536756216
 455              		.cfi_endproc
 456              	.LFE6:
 457              		.size	i2cGetChar, .-i2cGetChar
 458              		.align	1
 459              		.global	i2cWrite
 460              		.code	16
 461              		.thumb_func
 462              		.type	i2cWrite, %function
 463              	i2cWrite:
 464              	.LFB7:
 284:i2c.c         **** 
 285:i2c.c         **** /******************************************************************************
 286:i2c.c         ****  *
 287:i2c.c         ****  * Opis:
 288:i2c.c         ****  *    Wysylanie danych na magistrale i2c
 289:i2c.c         ****  *
 290:i2c.c         ****  * Parametry:
 291:i2c.c         ****  *     addr  - adres urzadzenia
 292:i2c.c         ****  *     pData - dane do transmisji
 293:i2c.c         ****  *     len   - ilosc bajtow do wyslania
 294:i2c.c         ****  *
 295:i2c.c         ****  * Zwraca:
 296:i2c.c         ****  *    I2C_CODE_OK    - powodzenie
 297:i2c.c         ****  *    I2C_CODE_ERROR - BLAD
 298:i2c.c         ****  *
 299:i2c.c         ****  *****************************************************************************/
 300:i2c.c         **** tS8 i2cWrite(tU8  addr, tU8* pData, tU16 len)
 301:i2c.c         **** {
 465              		.loc 1 301 0
 466              		.cfi_startproc
 467              		@ Function supports interworking.
 468              		@ args = 0, pretend = 0, frame = 0
 469              		@ frame_needed = 0, uses_anonymous_args = 0
 470              	.LVL28:
 471 0184 F8B5     		push	{r3, r4, r5, r6, r7, lr}
 472              	.LCFI2:
 473              		.cfi_def_cfa_offset 24
 474              		.cfi_offset 3, -24
 475              		.cfi_offset 4, -20
 476              		.cfi_offset 5, -16
 477              		.cfi_offset 6, -12
 478              		.cfi_offset 7, -8
 479              		.cfi_offset 14, -4
 480              		.loc 1 301 0
 481 0186 0500     		movs	r5, r0
 482 0188 0E00     		movs	r6, r1
ARM GAS  C:\Users\embedded\AppData\Local\Temp\ccFOwvpL.s 			page 15


 483 018a 1700     		movs	r7, r2
 302:i2c.c         ****   tS8 retCode = 0;
 303:i2c.c         ****   tU8 status  = 0;
 304:i2c.c         ****   tU8 i       = 0;
 305:i2c.c         **** 
 306:i2c.c         ****   retCode = i2cStart(); // generowanie komunikatu start
 484              		.loc 1 306 0
 485 018c FFF7FEFF 		bl	i2cStart
 486              	.LVL29:
 487 0190 0400     		movs	r4, r0
 488              	.LVL30:
 307:i2c.c         **** 
 308:i2c.c         ****   // transmisja adresu
 309:i2c.c         ****   if(retCode == I2C_CODE_OK)
 489              		.loc 1 309 0
 490 0192 0128     		cmp	r0, #1
 491 0194 25D1     		bne	.L46
 492              	.LVL31:
 493              	.L48:
 310:i2c.c         ****   {
 311:i2c.c         ****     /* write SLA+W */
 312:i2c.c         ****     retCode = i2cPutChar(addr);
 313:i2c.c         **** 	
 314:i2c.c         ****     while(retCode == I2C_CODE_BUSY) //dopoki rejestr danych zajety
 315:i2c.c         ****     {
 316:i2c.c         ****       retCode = i2cPutChar(addr);
 494              		.loc 1 316 0
 495 0196 2800     		movs	r0, r5
 496 0198 FFF7FEFF 		bl	i2cPutChar
 497              	.LVL32:
 498 019c 0400     		movs	r4, r0
 499              	.LVL33:
 314:i2c.c         ****     {
 500              		.loc 1 314 0
 501 019e 031D     		adds	r3, r0, #4
 502 01a0 F9D0     		beq	.L48
 503 01a2 0025     		movs	r5, #0
 317:i2c.c         ****     }
 318:i2c.c         ****   }
 319:i2c.c         **** 
 320:i2c.c         ****   if(retCode == I2C_CODE_OK)
 504              		.loc 1 320 0
 505 01a4 0128     		cmp	r0, #1
 506 01a6 1CD1     		bne	.L46
 507              	.LVL34:
 508              	.L49:
 321:i2c.c         ****   {
 322:i2c.c         ****     // oczekuj dopoki wyslany zostanie adres
 323:i2c.c         ****     for(i = 0; i < len; i++)
 509              		.loc 1 323 0 discriminator 1
 510 01a8 BD42     		cmp	r5, r7
 511 01aa 1AD2     		bcs	.L46
 512              	.L61:
 324:i2c.c         ****     {
 325:i2c.c         **** 	  // oczekuj dopoki wyslane zostana dane
 326:i2c.c         ****       while(1)
 327:i2c.c         ****       {
ARM GAS  C:\Users\embedded\AppData\Local\Temp\ccFOwvpL.s 			page 16


 328:i2c.c         ****         status = i2cCheckStatus(); // odczyt aktualnego statusu i2c
 513              		.loc 1 328 0
 514 01ac FFF7FEFF 		bl	i2cCheckStatus
 515              	.LVL35:
 329:i2c.c         **** 
 330:i2c.c         ****         // SLA+W wyslane i bit ACK otrzymany lub bajt wyslany i bit ACK otrzymany
 331:i2c.c         **** 
 332:i2c.c         ****         if( (status == 0x18) || (status == 0x28) )
 516              		.loc 1 332 0
 517 01b0 0300     		movs	r3, r0
 518 01b2 1022     		movs	r2, #16
 519 01b4 183B     		subs	r3, r3, #24
 520 01b6 9343     		bics	r3, r2
 521 01b8 1B06     		lsls	r3, r3, #24
 522 01ba 1B0E     		lsrs	r3, r3, #24
 523 01bc 07D1     		bne	.L50
 524              	.LVL36:
 525              	.L52:
 333:i2c.c         ****         {
 334:i2c.c         ****           // Dane wyslane i otrzymano bit ACK
 335:i2c.c         **** 
 336:i2c.c         ****           retCode = i2cPutChar(*pData); // zapisuj dane
 337:i2c.c         **** 		  
 338:i2c.c         ****           while(retCode == I2C_CODE_BUSY)
 339:i2c.c         ****           {
 340:i2c.c         ****             retCode = i2cPutChar(*pData);
 526              		.loc 1 340 0
 527 01be 3078     		ldrb	r0, [r6]
 528 01c0 FFF7FEFF 		bl	i2cPutChar
 529              	.LVL37:
 530 01c4 0400     		movs	r4, r0
 531              	.LVL38:
 338:i2c.c         ****           {
 532              		.loc 1 338 0
 533 01c6 031D     		adds	r3, r0, #4
 534 01c8 F9D0     		beq	.L52
 341:i2c.c         ****           }
 342:i2c.c         ****           pData++;
 535              		.loc 1 342 0
 536 01ca 0136     		adds	r6, r6, #1
 537              	.LVL39:
 343:i2c.c         **** 
 344:i2c.c         ****           break;
 538              		.loc 1 344 0
 539 01cc 05E0     		b	.L53
 540              	.LVL40:
 541              	.L50:
 345:i2c.c         ****         }
 346:i2c.c         **** 
 347:i2c.c         ****         else if( status != 0xf8 ) //gdy status nie jest odpowiedni BLAD
 542              		.loc 1 347 0
 543 01ce F828     		cmp	r0, #248
 544 01d0 ECD0     		beq	.L61
 348:i2c.c         ****         {
 349:i2c.c         ****           i = len;
 350:i2c.c         ****           retCode = I2C_CODE_ERROR;
 545              		.loc 1 350 0
ARM GAS  C:\Users\embedded\AppData\Local\Temp\ccFOwvpL.s 			page 17


 546 01d2 0124     		movs	r4, #1
 547              	.LVL41:
 349:i2c.c         ****           retCode = I2C_CODE_ERROR;
 548              		.loc 1 349 0
 549 01d4 3D06     		lsls	r5, r7, #24
 550              	.LVL42:
 551 01d6 2D0E     		lsrs	r5, r5, #24
 552              	.LVL43:
 553              		.loc 1 350 0
 554 01d8 6442     		rsbs	r4, r4, #0
 555              	.LVL44:
 556              	.L53:
 323:i2c.c         ****     {
 557              		.loc 1 323 0 discriminator 2
 558 01da 0135     		adds	r5, r5, #1
 559              	.LVL45:
 560 01dc 2D06     		lsls	r5, r5, #24
 561 01de 2D0E     		lsrs	r5, r5, #24
 562              	.LVL46:
 563 01e0 E2E7     		b	.L49
 564              	.LVL47:
 565              	.L46:
 351:i2c.c         ****           break;
 352:i2c.c         ****         }
 353:i2c.c         ****       }
 354:i2c.c         ****     }
 355:i2c.c         ****   }
 356:i2c.c         **** 
 357:i2c.c         ****  	  // oczekuj dopoki wyslane zostana dane
 358:i2c.c         ****   while(1)
 359:i2c.c         ****   {
 360:i2c.c         ****     status = i2cCheckStatus(); //odczytaj aktualny status i2c
 361:i2c.c         **** 
 362:i2c.c         ****     /* 
 363:i2c.c         ****      * SLA+W wyslany, ACK otrzymany lub
 364:i2c.c         ****      * bajt danych wyslany, ACK otrzymany
 365:i2c.c         ****      */
 366:i2c.c         **** 	 
 367:i2c.c         ****     if( (status == 0x18) || (status == 0x28) )
 566              		.loc 1 367 0
 567 01e2 1025     		movs	r5, #16
 568              	.L56:
 569              	.LVL48:
 360:i2c.c         **** 
 570              		.loc 1 360 0
 571 01e4 FFF7FEFF 		bl	i2cCheckStatus
 572              	.LVL49:
 573              		.loc 1 367 0
 574 01e8 0300     		movs	r3, r0
 575 01ea 183B     		subs	r3, r3, #24
 576 01ec AB43     		bics	r3, r5
 577 01ee 1B06     		lsls	r3, r3, #24
 578 01f0 1B0E     		lsrs	r3, r3, #24
 579 01f2 03D0     		beq	.L55
 368:i2c.c         ****     {
 369:i2c.c         ****       // dane wyslane i ACK otrzymane
 370:i2c.c         ****       break;
ARM GAS  C:\Users\embedded\AppData\Local\Temp\ccFOwvpL.s 			page 18


 371:i2c.c         ****     }
 372:i2c.c         **** 
 373:i2c.c         ****     else if(status != 0xf8 ) // BLAD - brak odpowiedniego statusu i2c
 580              		.loc 1 373 0
 581 01f4 F828     		cmp	r0, #248
 582 01f6 F5D0     		beq	.L56
 374:i2c.c         ****     {
 375:i2c.c         ****       i = len;
 376:i2c.c         ****       retCode = I2C_CODE_ERROR;
 583              		.loc 1 376 0
 584 01f8 0124     		movs	r4, #1
 585              	.LVL50:
 586 01fa 6442     		rsbs	r4, r4, #0
 587              	.L55:
 588              	.LVL51:
 377:i2c.c         ****       break;
 378:i2c.c         ****     }
 379:i2c.c         ****   }
 380:i2c.c         **** 
 381:i2c.c         ****   i2cStop(); // generowanie komunikatu stop
 589              		.loc 1 381 0
 590 01fc FFF7FEFF 		bl	i2cStop
 591              	.LVL52:
 382:i2c.c         **** 
 383:i2c.c         ****   return retCode;
 384:i2c.c         **** }
 592              		.loc 1 384 0
 593              		@ sp needed
 594 0200 2000     		movs	r0, r4
 595              	.LVL53:
 596              	.LVL54:
 597 0202 F8BC     		pop	{r3, r4, r5, r6, r7}
 598 0204 02BC     		pop	{r1}
 599 0206 0847     		bx	r1
 600              		.cfi_endproc
 601              	.LFE7:
 602              		.size	i2cWrite, .-i2cWrite
 603              		.align	1
 604              		.global	i2cWaitTransmit
 605              		.code	16
 606              		.thumb_func
 607              		.type	i2cWaitTransmit, %function
 608              	i2cWaitTransmit:
 609              	.LFB8:
 385:i2c.c         **** 
 386:i2c.c         **** tS8
 387:i2c.c         **** i2cWaitTransmit(void)
 388:i2c.c         **** {
 610              		.loc 1 388 0
 611              		.cfi_startproc
 612              		@ Function supports interworking.
 613              		@ args = 0, pretend = 0, frame = 0
 614              		@ frame_needed = 0, uses_anonymous_args = 0
 615              	.LVL55:
 616 0208 10B5     		push	{r4, lr}
 617              	.LCFI3:
 618              		.cfi_def_cfa_offset 8
ARM GAS  C:\Users\embedded\AppData\Local\Temp\ccFOwvpL.s 			page 19


 619              		.cfi_offset 4, -8
 620              		.cfi_offset 14, -4
 389:i2c.c         ****   tU8 status = 0;
 390:i2c.c         **** 
 391:i2c.c         ****   while(1) // oczekuj dopoki dane zostana wyslane
 392:i2c.c         ****   {
 393:i2c.c         ****     status = i2cCheckStatus(); // odczytaj aktualny status
 394:i2c.c         **** 
 395:i2c.c         ****     /* 
 396:i2c.c         ****      * SLA+W wyslany, ACK otrzymane lub
 397:i2c.c         ****      * bajt danych wyslany, ACK otrzymany
 398:i2c.c         ****      */
 399:i2c.c         ****     if( (status == 0x18) || (status == 0x28) )
 621              		.loc 1 399 0
 622 020a 1024     		movs	r4, #16
 623              	.LVL56:
 624              	.L67:
 393:i2c.c         **** 
 625              		.loc 1 393 0
 626 020c FFF7FEFF 		bl	i2cCheckStatus
 627              	.LVL57:
 628              		.loc 1 399 0
 629 0210 0300     		movs	r3, r0
 630 0212 183B     		subs	r3, r3, #24
 631 0214 A343     		bics	r3, r4
 632 0216 1B06     		lsls	r3, r3, #24
 633 0218 1B0E     		lsrs	r3, r3, #24
 634 021a 04D0     		beq	.L68
 400:i2c.c         ****     {
 401:i2c.c         ****       return I2C_CODE_OK; // dane wyslane i bit ACK otrzymany
 402:i2c.c         ****     }
 403:i2c.c         **** 
 404:i2c.c         ****     else if(status != 0xf8 ) // BLAD, brak odpowiedniego kodu statusu
 635              		.loc 1 404 0
 636 021c F828     		cmp	r0, #248
 637 021e F5D0     		beq	.L67
 405:i2c.c         ****     {
 406:i2c.c         ****       return I2C_CODE_ERROR;
 638              		.loc 1 406 0
 639 0220 0120     		movs	r0, #1
 640              	.LVL58:
 641 0222 4042     		rsbs	r0, r0, #0
 642 0224 00E0     		b	.L66
 643              	.LVL59:
 644              	.L68:
 401:i2c.c         ****     }
 645              		.loc 1 401 0
 646 0226 0120     		movs	r0, #1
 647              	.LVL60:
 648              	.L66:
 407:i2c.c         ****     }
 408:i2c.c         ****   }
 409:i2c.c         **** }
 649              		.loc 1 409 0
 650              		@ sp needed
 651 0228 10BC     		pop	{r4}
 652 022a 02BC     		pop	{r1}
ARM GAS  C:\Users\embedded\AppData\Local\Temp\ccFOwvpL.s 			page 20


 653 022c 0847     		bx	r1
 654              		.cfi_endproc
 655              	.LFE8:
 656              		.size	i2cWaitTransmit, .-i2cWaitTransmit
 657              		.align	1
 658              		.global	i2cWriteWithWait
 659              		.code	16
 660              		.thumb_func
 661              		.type	i2cWriteWithWait, %function
 662              	i2cWriteWithWait:
 663              	.LFB9:
 410:i2c.c         **** 
 411:i2c.c         **** tS8
 412:i2c.c         **** i2cWriteWithWait(tU8 data)
 413:i2c.c         **** {
 664              		.loc 1 413 0
 665              		.cfi_startproc
 666              		@ Function supports interworking.
 667              		@ args = 0, pretend = 0, frame = 0
 668              		@ frame_needed = 0, uses_anonymous_args = 0
 669              	.LVL61:
 670 022e 10B5     		push	{r4, lr}
 671              	.LCFI4:
 672              		.cfi_def_cfa_offset 8
 673              		.cfi_offset 4, -8
 674              		.cfi_offset 14, -4
 675 0230 0400     		movs	r4, r0
 676              	.LVL62:
 677              	.L73:
 414:i2c.c         ****   tS8 retCode = 0;
 415:i2c.c         ****   
 416:i2c.c         ****   retCode = i2cPutChar(data);
 417:i2c.c         ****   while(retCode == I2C_CODE_BUSY)
 418:i2c.c         ****   {
 419:i2c.c         ****     retCode = i2cPutChar(data);
 678              		.loc 1 419 0
 679 0232 2000     		movs	r0, r4
 680 0234 FFF7FEFF 		bl	i2cPutChar
 681              	.LVL63:
 417:i2c.c         ****   {
 682              		.loc 1 417 0
 683 0238 031D     		adds	r3, r0, #4
 684 023a FAD0     		beq	.L73
 420:i2c.c         ****   }
 421:i2c.c         **** 
 422:i2c.c         ****   if(retCode == I2C_CODE_OK)
 685              		.loc 1 422 0
 686 023c 0128     		cmp	r0, #1
 687 023e 01D1     		bne	.L74
 423:i2c.c         ****     retCode = i2cWaitTransmit();
 688              		.loc 1 423 0
 689 0240 FFF7FEFF 		bl	i2cWaitTransmit
 690              	.LVL64:
 691              	.L74:
 424:i2c.c         **** 
 425:i2c.c         ****   return retCode;
 426:i2c.c         **** }
ARM GAS  C:\Users\embedded\AppData\Local\Temp\ccFOwvpL.s 			page 21


 692              		.loc 1 426 0
 693              		@ sp needed
 694 0244 10BC     		pop	{r4}
 695 0246 02BC     		pop	{r1}
 696 0248 0847     		bx	r1
 697              		.cfi_endproc
 698              	.LFE9:
 699              		.size	i2cWriteWithWait, .-i2cWriteWithWait
 700              		.align	1
 701              		.global	i2cMyWrite
 702              		.code	16
 703              		.thumb_func
 704              		.type	i2cMyWrite, %function
 705              	i2cMyWrite:
 706              	.LFB10:
 427:i2c.c         **** 
 428:i2c.c         **** tS8 i2cMyWrite(tU8  addr, tU8* pData, tU16 len)
 429:i2c.c         **** {
 707              		.loc 1 429 0
 708              		.cfi_startproc
 709              		@ Function supports interworking.
 710              		@ args = 0, pretend = 0, frame = 0
 711              		@ frame_needed = 0, uses_anonymous_args = 0
 712              	.LVL65:
 713 024a F8B5     		push	{r3, r4, r5, r6, r7, lr}
 714              	.LCFI5:
 715              		.cfi_def_cfa_offset 24
 716              		.cfi_offset 3, -24
 717              		.cfi_offset 4, -20
 718              		.cfi_offset 5, -16
 719              		.cfi_offset 6, -12
 720              		.cfi_offset 7, -8
 721              		.cfi_offset 14, -4
 722              		.loc 1 429 0
 723 024c 0500     		movs	r5, r0
 724 024e 0F00     		movs	r7, r1
 725 0250 1600     		movs	r6, r2
 430:i2c.c         ****   tS8 retCode = 0;
 431:i2c.c         ****   tU8 i       = 0;
 432:i2c.c         **** 
 433:i2c.c         ****   do
 434:i2c.c         ****   {
 435:i2c.c         ****     // generuj komunikat start
 436:i2c.c         ****     retCode = i2cStart();
 726              		.loc 1 436 0
 727 0252 FFF7FEFF 		bl	i2cStart
 728              	.LVL66:
 729 0256 0400     		movs	r4, r0
 730              	.LVL67:
 437:i2c.c         ****     if(retCode != I2C_CODE_OK)
 731              		.loc 1 437 0
 732 0258 0128     		cmp	r0, #1
 733 025a 11D1     		bne	.L76
 438:i2c.c         ****       break;
 439:i2c.c         **** 
 440:i2c.c         ****     /* write address */
 441:i2c.c         ****     retCode = i2cWriteWithWait(addr);
ARM GAS  C:\Users\embedded\AppData\Local\Temp\ccFOwvpL.s 			page 22


 734              		.loc 1 441 0
 735 025c 2800     		movs	r0, r5
 736              	.LVL68:
 737 025e FFF7FEFF 		bl	i2cWriteWithWait
 738              	.LVL69:
 739 0262 0025     		movs	r5, #0
 740 0264 0400     		movs	r4, r0
 741              	.LVL70:
 442:i2c.c         ****     if(retCode != I2C_CODE_OK)
 742              		.loc 1 442 0
 743 0266 0128     		cmp	r0, #1
 744 0268 0AD1     		bne	.L76
 745              	.LVL71:
 746              	.L78:
 443:i2c.c         ****       break;
 444:i2c.c         **** 
 445:i2c.c         ****     for(i = 0; i <len; i++)
 747              		.loc 1 445 0 discriminator 1
 748 026a 2B06     		lsls	r3, r5, #24
 749 026c 1B0E     		lsrs	r3, r3, #24
 750 026e B342     		cmp	r3, r6
 751 0270 06D2     		bcs	.L76
 446:i2c.c         ****     {
 447:i2c.c         ****       retCode = i2cWriteWithWait(*pData);
 752              		.loc 1 447 0
 753 0272 785D     		ldrb	r0, [r7, r5]
 754 0274 FFF7FEFF 		bl	i2cWriteWithWait
 755              	.LVL72:
 756 0278 0135     		adds	r5, r5, #1
 757              	.LVL73:
 448:i2c.c         ****       if(retCode != I2C_CODE_OK)
 758              		.loc 1 448 0
 759 027a 0128     		cmp	r0, #1
 760 027c F5D0     		beq	.L78
 447:i2c.c         ****       if(retCode != I2C_CODE_OK)
 761              		.loc 1 447 0
 762 027e 0400     		movs	r4, r0
 763              	.LVL74:
 764              	.L76:
 449:i2c.c         ****         break;
 450:i2c.c         **** 
 451:i2c.c         ****       pData++;
 452:i2c.c         ****     }
 453:i2c.c         **** 
 454:i2c.c         ****   } while(0);
 455:i2c.c         **** 
 456:i2c.c         ****   /* generate Stop condition */
 457:i2c.c         ****   i2cStop();
 765              		.loc 1 457 0
 766 0280 FFF7FEFF 		bl	i2cStop
 767              	.LVL75:
 458:i2c.c         **** 
 459:i2c.c         **** 
 460:i2c.c         ****   return retCode;
 461:i2c.c         **** }
 768              		.loc 1 461 0
 769              		@ sp needed
ARM GAS  C:\Users\embedded\AppData\Local\Temp\ccFOwvpL.s 			page 23


 770 0284 2000     		movs	r0, r4
 771              	.LVL76:
 772 0286 F8BC     		pop	{r3, r4, r5, r6, r7}
 773 0288 02BC     		pop	{r1}
 774 028a 0847     		bx	r1
 775              		.cfi_endproc
 776              	.LFE10:
 777              		.size	i2cMyWrite, .-i2cMyWrite
 778              		.align	1
 779              		.global	i2cRead
 780              		.code	16
 781              		.thumb_func
 782              		.type	i2cRead, %function
 783              	i2cRead:
 784              	.LFB11:
 462:i2c.c         **** 
 463:i2c.c         **** /******************************************************************************
 464:i2c.c         ****  *
 465:i2c.c         ****  * Opis:
 466:i2c.c         ****  *    Read a specified number of bytes from the I2C network.
 467:i2c.c         ****  *
 468:i2c.c         ****  * Params:
 469:i2c.c         ****  *    [in] addr - adres
 470:i2c.c         ****  *    [in] pBuf - bufor do odbioru danych
 471:i2c.c         ****  *    [in] len  - ilosc bajtow do odbioru
 472:i2c.c         ****  *
 473:i2c.c         ****  * Zwraca:
 474:i2c.c         ****  *    I2C_CODE_OK lub I2C status code
 475:i2c.c         ****  *
 476:i2c.c         ****  *****************************************************************************/
 477:i2c.c         **** tS8 i2cRead(tU8  addr, tU8* pBuf, tU16 len)
 478:i2c.c         **** {
 785              		.loc 1 478 0
 786              		.cfi_startproc
 787              		@ Function supports interworking.
 788              		@ args = 0, pretend = 0, frame = 8
 789              		@ frame_needed = 0, uses_anonymous_args = 0
 790              	.LVL77:
 791 028c F7B5     		push	{r0, r1, r2, r4, r5, r6, r7, lr}
 792              	.LCFI6:
 793              		.cfi_def_cfa_offset 32
 794              		.cfi_offset 0, -32
 795              		.cfi_offset 1, -28
 796              		.cfi_offset 2, -24
 797              		.cfi_offset 4, -20
 798              		.cfi_offset 5, -16
 799              		.cfi_offset 6, -12
 800              		.cfi_offset 7, -8
 801              		.cfi_offset 14, -4
 802              		.loc 1 478 0
 803 028e 0500     		movs	r5, r0
 804 0290 0F00     		movs	r7, r1
 805 0292 0192     		str	r2, [sp, #4]
 479:i2c.c         ****   tS8 retCode = 0;
 480:i2c.c         ****   tU8 status  = 0;
 481:i2c.c         ****   tU8 i       = 0;
 482:i2c.c         **** 
ARM GAS  C:\Users\embedded\AppData\Local\Temp\ccFOwvpL.s 			page 24


 483:i2c.c         ****   retCode = i2cStart(); //generowanie sygnalu start
 806              		.loc 1 483 0
 807 0294 FFF7FEFF 		bl	i2cStart
 808              	.LVL78:
 809 0298 0400     		movs	r4, r0
 810              	.LVL79:
 484:i2c.c         **** 
 485:i2c.c         ****   // wyslanie adresu
 486:i2c.c         ****   if(retCode == I2C_CODE_OK )
 811              		.loc 1 486 0
 812 029a 0128     		cmp	r0, #1
 813 029c 3BD1     		bne	.L82
 814              	.LVL80:
 815              	.L84:
 487:i2c.c         ****   {
 488:i2c.c         ****     /* write SLA+R */
 489:i2c.c         ****     retCode = i2cPutChar(addr);
 490:i2c.c         ****     while(retCode == I2C_CODE_BUSY)
 491:i2c.c         ****     {
 492:i2c.c         ****       retCode = i2cPutChar(addr);
 816              		.loc 1 492 0
 817 029e 2800     		movs	r0, r5
 818 02a0 FFF7FEFF 		bl	i2cPutChar
 819              	.LVL81:
 820 02a4 0400     		movs	r4, r0
 821              	.LVL82:
 490:i2c.c         ****     {
 822              		.loc 1 490 0
 823 02a6 031D     		adds	r3, r0, #4
 824 02a8 F9D0     		beq	.L84
 493:i2c.c         ****     }
 494:i2c.c         ****   }
 495:i2c.c         **** 
 496:i2c.c         ****   if(retCode == I2C_CODE_OK )
 825              		.loc 1 496 0
 826 02aa 0128     		cmp	r0, #1
 827 02ac 33D1     		bne	.L82
 828 02ae 0300     		movs	r3, r0
 829 02b0 0400     		movs	r4, r0
 497:i2c.c         ****   {
 498:i2c.c         **** 	 
 499:i2c.c         ****     //oczekuj dopoki wyslany zostanie adres i odbieraj dane
 500:i2c.c         ****     for(i = 1; i <= len; i++ )
 501:i2c.c         ****     {
 502:i2c.c         ****       // oczekuj az wyslane zostana dane
 503:i2c.c         ****       while(1)
 504:i2c.c         ****       {
 505:i2c.c         ****         status = i2cCheckStatus(); // odczytaj status i2c
 506:i2c.c         **** 		
 507:i2c.c         ****         /*
 508:i2c.c         ****          * SLA+R wyslany, ACK otrzymany lub
 509:i2c.c         ****          * SLA+R wyslany, ACK nie otrzymany lub
 510:i2c.c         ****          * bajt danych otrzymany w trybie master, ACK wyslany
 511:i2c.c         ****          */
 512:i2c.c         **** 		 
 513:i2c.c         ****         if((status == 0x40 ) || (status == 0x48 ) || (status == 0x50 ))
 830              		.loc 1 513 0 discriminator 1
ARM GAS  C:\Users\embedded\AppData\Local\Temp\ccFOwvpL.s 			page 25


 831 02b2 0825     		movs	r5, #8
 832              	.LVL83:
 833              	.L85:
 500:i2c.c         ****     {
 834              		.loc 1 500 0 discriminator 1
 835 02b4 019A     		ldr	r2, [sp, #4]
 836 02b6 2604     		lsls	r6, r4, #16
 837 02b8 360C     		lsrs	r6, r6, #16
 838 02ba 9642     		cmp	r6, r2
 839 02bc 2AD8     		bhi	.L106
 840              	.LVL84:
 841              	.L99:
 505:i2c.c         **** 		
 842              		.loc 1 505 0
 843 02be FFF7FEFF 		bl	i2cCheckStatus
 844              	.LVL85:
 845              		.loc 1 513 0
 846 02c2 0300     		movs	r3, r0
 847 02c4 AB43     		bics	r3, r5
 848 02c6 1B06     		lsls	r3, r3, #24
 849 02c8 1B0E     		lsrs	r3, r3, #24
 850 02ca 402B     		cmp	r3, #64
 851 02cc 01D0     		beq	.L86
 852              		.loc 1 513 0 is_stmt 0 discriminator 2
 853 02ce 5028     		cmp	r0, #80
 854 02d0 15D1     		bne	.L87
 855              	.L86:
 514:i2c.c         ****         {
 515:i2c.c         ****           // dane otrzymane
 516:i2c.c         **** 
 517:i2c.c         ****           if(i == len)
 856              		.loc 1 517 0 is_stmt 1
 857 02d2 0199     		ldr	r1, [sp, #4]
 858 02d4 134A     		ldr	r2, .L107
 859 02d6 144B     		ldr	r3, .L107+4
 860 02d8 8E42     		cmp	r6, r1
 861 02da 02D1     		bne	.L88
 862              	.LVL86:
 863              	.LBB26:
 864              	.LBB27:
 267:i2c.c         ****     I2C_CONCLR = 0x08; 
 865              		.loc 1 267 0
 866 02dc 0421     		movs	r1, #4
 867 02de 1170     		strb	r1, [r2]
 868 02e0 03E0     		b	.L103
 869              	.LVL87:
 870              	.L88:
 871              	.LBE27:
 872              	.LBE26:
 873              	.LBB28:
 874              	.LBB29:
 262:i2c.c         ****     I2C_CONCLR = 0x08;  //czyszczenie flagi przerwan
 875              		.loc 1 262 0
 876 02e2 0420     		movs	r0, #4
 877              	.LVL88:
 878 02e4 1978     		ldrb	r1, [r3]
 879 02e6 0143     		orrs	r1, r0
ARM GAS  C:\Users\embedded\AppData\Local\Temp\ccFOwvpL.s 			page 26


 880 02e8 1970     		strb	r1, [r3]
 881              	.LVL89:
 882              	.L103:
 263:i2c.c         ****   }
 883              		.loc 1 263 0
 884 02ea 1570     		strb	r5, [r2]
 885              	.LVL90:
 886              	.L90:
 887              	.LBE29:
 888              	.LBE28:
 889              	.LBB30:
 890              	.LBB31:
 891              	.LBB32:
 892              	.LBB33:
 272:i2c.c         ****     {
 893              		.loc 1 272 0
 894 02ec 1A78     		ldrb	r2, [r3]
 895 02ee 2A42     		tst	r2, r5
 896 02f0 FCD0     		beq	.L90
 274:i2c.c         ****     }
 897              		.loc 1 274 0
 898 02f2 0E4B     		ldr	r3, .L107+8
 899 02f4 1B78     		ldrb	r3, [r3]
 900 02f6 3B70     		strb	r3, [r7]
 901              	.LVL91:
 902              	.LBE33:
 903              	.LBE32:
 904              	.LBE31:
 905              	.LBE30:
 518:i2c.c         ****           {
 519:i2c.c         ****             retCode = i2cGetChar(I2C_MODE_ACK1, pBuf); // generowanie bitu NACK
 520:i2c.c         ****           }
 521:i2c.c         ****           else
 522:i2c.c         ****           {
 523:i2c.c         ****             retCode = i2cGetChar(I2C_MODE_ACK0, pBuf);
 524:i2c.c         ****           }
 525:i2c.c         **** 
 526:i2c.c         ****           retCode = i2cGetChar(I2C_MODE_READ, pBuf); //tryb odczytywania danych
 527:i2c.c         ****           while(retCode == I2C_CODE_EMPTY)
 528:i2c.c         ****           {
 529:i2c.c         ****             retCode = i2cGetChar(I2C_MODE_READ, pBuf);
 530:i2c.c         ****           }
 531:i2c.c         ****           pBuf++;
 906              		.loc 1 531 0
 907 02f8 0137     		adds	r7, r7, #1
 908              	.LVL92:
 532:i2c.c         **** 
 533:i2c.c         ****           break;
 909              		.loc 1 533 0
 910 02fa 0123     		movs	r3, #1
 911 02fc 06E0     		b	.L92
 912              	.LVL93:
 913              	.L87:
 534:i2c.c         ****         }
 535:i2c.c         **** 
 536:i2c.c         ****         else if(status != 0xf8 ) // BLAD - brak odpowiedniego statusu i2c
 914              		.loc 1 536 0
ARM GAS  C:\Users\embedded\AppData\Local\Temp\ccFOwvpL.s 			page 27


 915 02fe F828     		cmp	r0, #248
 916 0300 DDD0     		beq	.L99
 537:i2c.c         ****         {
 538:i2c.c         ****           i = len;
 917              		.loc 1 538 0
 918 0302 019B     		ldr	r3, [sp, #4]
 919 0304 1C06     		lsls	r4, r3, #24
 920              	.LVL94:
 539:i2c.c         ****           retCode = I2C_CODE_ERROR;
 921              		.loc 1 539 0
 922 0306 0123     		movs	r3, #1
 538:i2c.c         ****           retCode = I2C_CODE_ERROR;
 923              		.loc 1 538 0
 924 0308 240E     		lsrs	r4, r4, #24
 925              	.LVL95:
 926              		.loc 1 539 0
 927 030a 5B42     		rsbs	r3, r3, #0
 928              	.LVL96:
 929              	.L92:
 500:i2c.c         ****     {
 930              		.loc 1 500 0 discriminator 2
 931 030c 0134     		adds	r4, r4, #1
 932              	.LVL97:
 933 030e 2406     		lsls	r4, r4, #24
 934 0310 240E     		lsrs	r4, r4, #24
 935              	.LVL98:
 936 0312 CFE7     		b	.L85
 937              	.L106:
 938 0314 1C00     		movs	r4, r3
 939              	.LVL99:
 940              	.L82:
 540:i2c.c         ****           break;
 541:i2c.c         ****         }
 542:i2c.c         ****       }
 543:i2c.c         ****     }
 544:i2c.c         ****   }
 545:i2c.c         **** 
 546:i2c.c         ****   i2cStop(); //zatrzymanie transmisji
 941              		.loc 1 546 0
 942 0316 FFF7FEFF 		bl	i2cStop
 943              	.LVL100:
 547:i2c.c         **** 
 548:i2c.c         ****   return retCode;
 549:i2c.c         **** }
 944              		.loc 1 549 0
 945              		@ sp needed
 946 031a 2000     		movs	r0, r4
 947              	.LVL101:
 948              	.LVL102:
 949 031c FEBC     		pop	{r1, r2, r3, r4, r5, r6, r7}
 950 031e 02BC     		pop	{r1}
 951 0320 0847     		bx	r1
 952              	.L108:
 953 0322 C046     		.align	2
 954              	.L107:
 955 0324 18C001E0 		.word	-536756200
 956 0328 00C001E0 		.word	-536756224
ARM GAS  C:\Users\embedded\AppData\Local\Temp\ccFOwvpL.s 			page 28


 957 032c 08C001E0 		.word	-536756216
 958              		.cfi_endproc
 959              	.LFE11:
 960              		.size	i2cRead, .-i2cRead
 961              	.Letext0:
 962              		.file 2 "general.h"