ARM GAS  C:\Users\embedded\AppData\Local\Temp\cc6zOmtj.s 			page 1


   1              		.syntax unified
   2              		.cpu arm7tdmi
   3              		.fpu softvfp
   4              		.eabi_attribute 20, 1
   5              		.eabi_attribute 21, 1
   6              		.eabi_attribute 23, 3
   7              		.eabi_attribute 24, 1
   8              		.eabi_attribute 25, 1
   9              		.eabi_attribute 26, 1
  10              		.eabi_attribute 30, 4
  11              		.eabi_attribute 34, 0
  12              		.eabi_attribute 18, 4
  13              		.thumb
  14              		.syntax unified
  15              		.file	"lcd.c"
  16              		.text
  17              	.Ltext0:
  18              		.cfi_sections	.debug_frame
  19              		.align	1
  20              		.global	delay37us
  21              		.code	16
  22              		.thumb_func
  23              		.type	delay37us, %function
  24              	delay37us:
  25              	.LFB0:
  26              		.file 1 "lcd.c"
   1:lcd.c         **** /*
   2:lcd.c         ****  * lcd.c
   3:lcd.c         ****  *
   4:lcd.c         ****  *  Created on: Jan 5, 2018
   5:lcd.c         ****  *      Author: embedded
   6:lcd.c         ****  */
   7:lcd.c         **** #include "lcd.h"
   8:lcd.c         **** 
   9:lcd.c         **** void delay37us(void)
  10:lcd.c         **** {
  27              		.loc 1 10 0
  28              		.cfi_startproc
  29              		@ Function supports interworking.
  30              		@ args = 0, pretend = 0, frame = 8
  31              		@ frame_needed = 0, uses_anonymous_args = 0
  32              		@ link register save eliminated.
  11:lcd.c         **** 	volatile tU32 i;
  12:lcd.c         **** 
  13:lcd.c         **** //Temp test for 140 uS delay
  14:lcd.c         **** 	for(i=0; i<6*2500; i++)
  33              		.loc 1 14 0
  34 0000 0023     		movs	r3, #0
  10:lcd.c         **** 	volatile tU32 i;
  35              		.loc 1 10 0
  36 0002 82B0     		sub	sp, sp, #8
  37              	.LCFI0:
  38              		.cfi_def_cfa_offset 8
  39              		.loc 1 14 0
  40 0004 0193     		str	r3, [sp, #4]
  41 0006 054A     		ldr	r2, .L6
  42              	.L2:
ARM GAS  C:\Users\embedded\AppData\Local\Temp\cc6zOmtj.s 			page 2


  43              		.loc 1 14 0 is_stmt 0 discriminator 1
  44 0008 019B     		ldr	r3, [sp, #4]
  45 000a 9342     		cmp	r3, r2
  46 000c 04D8     		bhi	.L5
  15:lcd.c         ****     asm volatile (" nop"); //delay 15 ns x 2500 = about 37 us delay
  47              		.loc 1 15 0 is_stmt 1 discriminator 3
  48              		.syntax divided
  49              	@ 15 "lcd.c" 1
  50 000e C046     		 nop
  51              	@ 0 "" 2
  14:lcd.c         ****     asm volatile (" nop"); //delay 15 ns x 2500 = about 37 us delay
  52              		.loc 1 14 0 discriminator 3
  53              		.thumb
  54              		.syntax unified
  55 0010 019B     		ldr	r3, [sp, #4]
  56 0012 0133     		adds	r3, r3, #1
  57 0014 0193     		str	r3, [sp, #4]
  58 0016 F7E7     		b	.L2
  59              	.L5:
  16:lcd.c         **** }
  60              		.loc 1 16 0
  61 0018 02B0     		add	sp, sp, #8
  62              		@ sp needed
  63 001a 7047     		bx	lr
  64              	.L7:
  65              		.align	2
  66              	.L6:
  67 001c 973A0000 		.word	14999
  68              		.cfi_endproc
  69              	.LFE0:
  70              		.size	delay37us, .-delay37us
  71              		.align	1
  72              		.global	initLCD
  73              		.code	16
  74              		.thumb_func
  75              		.type	initLCD, %function
  76              	initLCD:
  77              	.LFB1:
  17:lcd.c         **** 
  18:lcd.c         **** void initLCD(void)
  19:lcd.c         **** {
  78              		.loc 1 19 0
  79              		.cfi_startproc
  80              		@ Function supports interworking.
  81              		@ args = 0, pretend = 0, frame = 0
  82              		@ frame_needed = 0, uses_anonymous_args = 0
  83              		@ link register save eliminated.
  20:lcd.c         **** 	IODIR1 |= (dat | en | rs);
  21:lcd.c         **** 	IOCLR1  = (dat | en | rs);
  22:lcd.c         **** 
  23:lcd.c         **** 	IODIR0 |= rw;
  84              		.loc 1 23 0
  85 0020 8020     		movs	r0, #128
  20:lcd.c         **** 	IODIR1 |= (dat | en | rs);
  86              		.loc 1 20 0
  87 0022 0A49     		ldr	r1, .L9
  88 0024 0A4A     		ldr	r2, .L9+4
ARM GAS  C:\Users\embedded\AppData\Local\Temp\cc6zOmtj.s 			page 3


  89 0026 0B68     		ldr	r3, [r1]
  90 0028 1343     		orrs	r3, r2
  91 002a 0B60     		str	r3, [r1]
  21:lcd.c         **** 
  92              		.loc 1 21 0
  93 002c 094B     		ldr	r3, .L9+8
  94 002e 1A60     		str	r2, [r3]
  95              		.loc 1 23 0
  96 0030 094B     		ldr	r3, .L9+12
  97 0032 1A68     		ldr	r2, [r3]
  98 0034 C003     		lsls	r0, r0, #15
  24:lcd.c         **** 	IOCLR0  = rw;
  99              		.loc 1 24 0
 100 0036 0949     		ldr	r1, .L9+16
  23:lcd.c         **** 	IOCLR0  = rw;
 101              		.loc 1 23 0
 102 0038 0243     		orrs	r2, r0
 103 003a 1A60     		str	r2, [r3]
 104              		.loc 1 24 0
 105 003c 0860     		str	r0, [r1]
  25:lcd.c         **** 
  26:lcd.c         **** 	IODIR0 |= b_light;
 106              		.loc 1 26 0
 107 003e 8020     		movs	r0, #128
 108 0040 1A68     		ldr	r2, [r3]
 109 0042 C005     		lsls	r0, r0, #23
 110 0044 0243     		orrs	r2, r0
 111 0046 1A60     		str	r2, [r3]
  27:lcd.c         **** 	IOCLR0  = b_light;
  28:lcd.c         **** 
  29:lcd.c         **** }
 112              		.loc 1 29 0
 113              		@ sp needed
  27:lcd.c         **** 	IOCLR0  = b_light;
 114              		.loc 1 27 0
 115 0048 0860     		str	r0, [r1]
 116              		.loc 1 29 0
 117 004a 7047     		bx	lr
 118              	.L10:
 119              		.align	2
 120              	.L9:
 121 004c 188002E0 		.word	-536707048
 122 0050 0000FF03 		.word	67043328
 123 0054 1C8002E0 		.word	-536707044
 124 0058 088002E0 		.word	-536707064
 125 005c 0C8002E0 		.word	-536707060
 126              		.cfi_endproc
 127              	.LFE1:
 128              		.size	initLCD, .-initLCD
 129              		.align	1
 130              		.global	writeLCD
 131              		.code	16
 132              		.thumb_func
 133              		.type	writeLCD, %function
 134              	writeLCD:
 135              	.LFB2:
  30:lcd.c         **** void writeLCD (tU8 reg, tU8 znak)
ARM GAS  C:\Users\embedded\AppData\Local\Temp\cc6zOmtj.s 			page 4


  31:lcd.c         **** {
 136              		.loc 1 31 0
 137              		.cfi_startproc
 138              		@ Function supports interworking.
 139              		@ args = 0, pretend = 0, frame = 8
 140              		@ frame_needed = 0, uses_anonymous_args = 0
 141              	.LVL0:
 142 0060 8023     		movs	r3, #128
 143 0062 13B5     		push	{r0, r1, r4, lr}
 144              	.LCFI1:
 145              		.cfi_def_cfa_offset 16
 146              		.cfi_offset 0, -16
 147              		.cfi_offset 1, -12
 148              		.cfi_offset 4, -8
 149              		.cfi_offset 14, -4
 150 0064 5B04     		lsls	r3, r3, #17
 151 0066 194C     		ldr	r4, .L22
 152 0068 194A     		ldr	r2, .L22+4
  32:lcd.c         **** 	volatile tU8 i;
  33:lcd.c         **** 
  34:lcd.c         **** 	if (reg == 0)
 153              		.loc 1 34 0
 154 006a 0028     		cmp	r0, #0
 155 006c 01D1     		bne	.L12
  35:lcd.c         **** 	  IOCLR1 = rs;
 156              		.loc 1 35 0
 157 006e 2360     		str	r3, [r4]
 158 0070 00E0     		b	.L13
 159              	.L12:
  36:lcd.c         **** 	else
  37:lcd.c         **** 	  IOSET1 = rs;
 160              		.loc 1 37 0
 161 0072 1360     		str	r3, [r2]
 162              	.L13:
  38:lcd.c         **** 
  39:lcd.c         ****     IOCLR0 = rw;
 163              		.loc 1 39 0
 164 0074 8020     		movs	r0, #128
 165              	.LVL1:
 166 0076 174B     		ldr	r3, .L22+8
 167 0078 C003     		lsls	r0, r0, #15
 168 007a 1860     		str	r0, [r3]
  40:lcd.c         **** 	IOCLR1 = dat;
 169              		.loc 1 40 0
 170 007c FF23     		movs	r3, #255
  41:lcd.c         **** 	IOSET1 = ((tU32)znak << 16) & dat;
 171              		.loc 1 41 0
 172 007e 0904     		lsls	r1, r1, #16
 173              	.LVL2:
  40:lcd.c         **** 	IOCLR1 = dat;
 174              		.loc 1 40 0
 175 0080 1B04     		lsls	r3, r3, #16
 176 0082 2360     		str	r3, [r4]
 177              		.loc 1 41 0
 178 0084 0B40     		ands	r3, r1
 179 0086 1360     		str	r3, [r2]
  42:lcd.c         **** 
ARM GAS  C:\Users\embedded\AppData\Local\Temp\cc6zOmtj.s 			page 5


  43:lcd.c         **** 	IOSET1 = en;
 180              		.loc 1 43 0
 181 0088 8023     		movs	r3, #128
 182 008a 9B04     		lsls	r3, r3, #18
 183 008c 1360     		str	r3, [r2]
  44:lcd.c         **** 
  45:lcd.c         **** 	for(i=0; i<16; i++)
 184              		.loc 1 45 0
 185 008e 6B46     		mov	r3, sp
 186 0090 0022     		movs	r2, #0
 187 0092 0733     		adds	r3, r3, #7
 188              	.L18:
 189              		.loc 1 45 0 is_stmt 0 discriminator 3
 190 0094 1A70     		strb	r2, [r3]
 191 0096 1A78     		ldrb	r2, [r3]
 192 0098 0F2A     		cmp	r2, #15
 193 009a 05D8     		bhi	.L20
  46:lcd.c         ****     asm volatile (" nop"); //delay 15 ns x 16 = about 250 ns delay
 194              		.loc 1 46 0 is_stmt 1 discriminator 3
 195              		.syntax divided
 196              	@ 46 "lcd.c" 1
 197 009c C046     		 nop
 198              	@ 0 "" 2
  45:lcd.c         ****     asm volatile (" nop"); //delay 15 ns x 16 = about 250 ns delay
 199              		.loc 1 45 0 discriminator 3
 200              		.thumb
 201              		.syntax unified
 202 009e 1A78     		ldrb	r2, [r3]
 203 00a0 0132     		adds	r2, r2, #1
 204 00a2 1206     		lsls	r2, r2, #24
 205 00a4 120E     		lsrs	r2, r2, #24
 206 00a6 F5E7     		b	.L18
 207              	.L20:
  47:lcd.c         **** 	IOCLR1 = en;
 208              		.loc 1 47 0
 209 00a8 8022     		movs	r2, #128
 210 00aa 9204     		lsls	r2, r2, #18
 211 00ac 2260     		str	r2, [r4]
  48:lcd.c         **** 	for(i=0; i<16; i++)
 212              		.loc 1 48 0
 213 00ae 0022     		movs	r2, #0
 214              	.L19:
 215              		.loc 1 48 0 is_stmt 0 discriminator 3
 216 00b0 1A70     		strb	r2, [r3]
 217 00b2 1A78     		ldrb	r2, [r3]
 218 00b4 0F2A     		cmp	r2, #15
 219 00b6 05D8     		bhi	.L21
  49:lcd.c         ****     asm volatile (" nop"); //delay 15 ns x 16 = about 250 ns delay
 220              		.loc 1 49 0 is_stmt 1 discriminator 3
 221              		.syntax divided
 222              	@ 49 "lcd.c" 1
 223 00b8 C046     		 nop
 224              	@ 0 "" 2
  48:lcd.c         **** 	for(i=0; i<16; i++)
 225              		.loc 1 48 0 discriminator 3
 226              		.thumb
 227              		.syntax unified
ARM GAS  C:\Users\embedded\AppData\Local\Temp\cc6zOmtj.s 			page 6


 228 00ba 1A78     		ldrb	r2, [r3]
 229 00bc 0132     		adds	r2, r2, #1
 230 00be 1206     		lsls	r2, r2, #24
 231 00c0 120E     		lsrs	r2, r2, #24
 232 00c2 F5E7     		b	.L19
 233              	.L21:
  50:lcd.c         **** }
 234              		.loc 1 50 0
 235              		@ sp needed
 236 00c4 13BC     		pop	{r0, r1, r4}
 237 00c6 01BC     		pop	{r0}
 238 00c8 0047     		bx	r0
 239              	.L23:
 240 00ca C046     		.align	2
 241              	.L22:
 242 00cc 1C8002E0 		.word	-536707044
 243 00d0 148002E0 		.word	-536707052
 244 00d4 0C8002E0 		.word	-536707060
 245              		.cfi_endproc
 246              	.LFE2:
 247              		.size	writeLCD, .-writeLCD
 248              		.align	1
 249              		.global	setLCD
 250              		.code	16
 251              		.thumb_func
 252              		.type	setLCD, %function
 253              	setLCD:
 254              	.LFB3:
  51:lcd.c         **** 
  52:lcd.c         **** void setLCD()
  53:lcd.c         **** {
 255              		.loc 1 53 0
 256              		.cfi_startproc
 257              		@ Function supports interworking.
 258              		@ args = 0, pretend = 0, frame = 0
 259              		@ frame_needed = 0, uses_anonymous_args = 0
 260 00d8 10B5     		push	{r4, lr}
 261              	.LCFI2:
 262              		.cfi_def_cfa_offset 8
 263              		.cfi_offset 4, -8
 264              		.cfi_offset 14, -4
  54:lcd.c         ****     writeLCD(0, 0x30);
 265              		.loc 1 54 0
 266 00da 3021     		movs	r1, #48
 267 00dc 0020     		movs	r0, #0
 268 00de FFF7FEFF 		bl	writeLCD
 269              	.LVL3:
  55:lcd.c         **** 	delay37us();
 270              		.loc 1 55 0
 271 00e2 FFF7FEFF 		bl	delay37us
 272              	.LVL4:
  56:lcd.c         **** 	delay37us();
 273              		.loc 1 56 0
 274 00e6 FFF7FEFF 		bl	delay37us
 275              	.LVL5:
  57:lcd.c         **** 
  58:lcd.c         **** 	//function set
ARM GAS  C:\Users\embedded\AppData\Local\Temp\cc6zOmtj.s 			page 7


  59:lcd.c         ****     writeLCD(0, 0x38);
 276              		.loc 1 59 0
 277 00ea 3821     		movs	r1, #56
 278 00ec 0020     		movs	r0, #0
 279 00ee FFF7FEFF 		bl	writeLCD
 280              	.LVL6:
  60:lcd.c         **** 	delay37us();
 281              		.loc 1 60 0
 282 00f2 FFF7FEFF 		bl	delay37us
 283              	.LVL7:
  61:lcd.c         **** 
  62:lcd.c         **** 	//display off
  63:lcd.c         **** 	writeLCD(0, 0x08);
 284              		.loc 1 63 0
 285 00f6 0821     		movs	r1, #8
 286 00f8 0020     		movs	r0, #0
 287 00fa FFF7FEFF 		bl	writeLCD
 288              	.LVL8:
  64:lcd.c         **** 	delay37us();
 289              		.loc 1 64 0
 290 00fe FFF7FEFF 		bl	delay37us
 291              	.LVL9:
  65:lcd.c         **** 
  66:lcd.c         ****     //display clear
  67:lcd.c         **** 	writeLCD(0, 0x01);
 292              		.loc 1 67 0
 293 0102 0121     		movs	r1, #1
 294 0104 0020     		movs	r0, #0
 295 0106 FFF7FEFF 		bl	writeLCD
 296              	.LVL10:
  68:lcd.c         **** 	delay37us(); //actually only 1.52 mS needed
 297              		.loc 1 68 0
 298 010a FFF7FEFF 		bl	delay37us
 299              	.LVL11:
  69:lcd.c         **** 
  70:lcd.c         **** 	//display control set
  71:lcd.c         **** 	writeLCD(0, 0x06);
 300              		.loc 1 71 0
 301 010e 0621     		movs	r1, #6
 302 0110 0020     		movs	r0, #0
 303 0112 FFF7FEFF 		bl	writeLCD
 304              	.LVL12:
  72:lcd.c         **** 	delay37us();
 305              		.loc 1 72 0
 306 0116 FFF7FEFF 		bl	delay37us
 307              	.LVL13:
  73:lcd.c         **** 
  74:lcd.c         **** 	//display control set
  75:lcd.c         **** 	writeLCD(0, 0x0c);
 308              		.loc 1 75 0
 309 011a 0C21     		movs	r1, #12
 310 011c 0020     		movs	r0, #0
 311 011e FFF7FEFF 		bl	writeLCD
 312              	.LVL14:
  76:lcd.c         **** 	delay37us();
 313              		.loc 1 76 0
 314 0122 FFF7FEFF 		bl	delay37us
ARM GAS  C:\Users\embedded\AppData\Local\Temp\cc6zOmtj.s 			page 8


 315              	.LVL15:
  77:lcd.c         **** 			    //cursor home
  78:lcd.c         ****     writeLCD(0, 0x02);
 316              		.loc 1 78 0
 317 0126 0221     		movs	r1, #2
 318 0128 0020     		movs	r0, #0
 319 012a FFF7FEFF 		bl	writeLCD
 320              	.LVL16:
  79:lcd.c         ****     delay37us();
  80:lcd.c         **** }
 321              		.loc 1 80 0
 322              		@ sp needed
  79:lcd.c         ****     delay37us();
 323              		.loc 1 79 0
 324 012e FFF7FEFF 		bl	delay37us
 325              	.LVL17:
 326              		.loc 1 80 0
 327 0132 10BC     		pop	{r4}
 328 0134 01BC     		pop	{r0}
 329 0136 0047     		bx	r0
 330              		.cfi_endproc
 331              	.LFE3:
 332              		.size	setLCD, .-setLCD
 333              		.align	1
 334              		.global	LCD_WriteFunction
 335              		.code	16
 336              		.thumb_func
 337              		.type	LCD_WriteFunction, %function
 338              	LCD_WriteFunction:
 339              	.LFB4:
  81:lcd.c         **** 
  82:lcd.c         **** void LCD_WriteFunction (unsigned int function)
  83:lcd.c         **** {
 340              		.loc 1 83 0
 341              		.cfi_startproc
 342              		@ Function supports interworking.
 343              		@ args = 0, pretend = 0, frame = 0
 344              		@ frame_needed = 0, uses_anonymous_args = 0
 345              	.LVL18:
 346 0138 10B5     		push	{r4, lr}
 347              	.LCFI3:
 348              		.cfi_def_cfa_offset 8
 349              		.cfi_offset 4, -8
 350              		.cfi_offset 14, -4
 351              		.loc 1 83 0
 352 013a 0400     		movs	r4, r0
  84:lcd.c         **** 	delay37us();
 353              		.loc 1 84 0
 354 013c FFF7FEFF 		bl	delay37us
 355              	.LVL19:
  85:lcd.c         **** 	writeLCD (0, function);
 356              		.loc 1 85 0
 357 0140 2106     		lsls	r1, r4, #24
 358 0142 090E     		lsrs	r1, r1, #24
 359 0144 0020     		movs	r0, #0
 360 0146 FFF7FEFF 		bl	writeLCD
 361              	.LVL20:
ARM GAS  C:\Users\embedded\AppData\Local\Temp\cc6zOmtj.s 			page 9


  86:lcd.c         **** }
 362              		.loc 1 86 0
 363              		@ sp needed
 364              	.LVL21:
 365 014a 10BC     		pop	{r4}
 366 014c 01BC     		pop	{r0}
 367 014e 0047     		bx	r0
 368              		.cfi_endproc
 369              	.LFE4:
 370              		.size	LCD_WriteFunction, .-LCD_WriteFunction
 371              		.align	1
 372              		.global	LCD_WriteNumber
 373              		.code	16
 374              		.thumb_func
 375              		.type	LCD_WriteNumber, %function
 376              	LCD_WriteNumber:
 377              	.LFB5:
  87:lcd.c         **** 
  88:lcd.c         **** void LCD_WriteNumber (unsigned int number)
  89:lcd.c         **** {
 378              		.loc 1 89 0
 379              		.cfi_startproc
 380              		@ Function supports interworking.
 381              		@ args = 0, pretend = 0, frame = 0
 382              		@ frame_needed = 0, uses_anonymous_args = 0
 383              	.LVL22:
 384 0150 10B5     		push	{r4, lr}
 385              	.LCFI4:
 386              		.cfi_def_cfa_offset 8
 387              		.cfi_offset 4, -8
 388              		.cfi_offset 14, -4
 389              		.loc 1 89 0
 390 0152 0400     		movs	r4, r0
  90:lcd.c         **** 	delay37us();
 391              		.loc 1 90 0
 392 0154 FFF7FEFF 		bl	delay37us
 393              	.LVL23:
  91:lcd.c         **** 	writeLCD (1, number + '0');
 394              		.loc 1 91 0
 395 0158 2100     		movs	r1, r4
 396 015a 3031     		adds	r1, r1, #48
 397 015c 0906     		lsls	r1, r1, #24
 398 015e 090E     		lsrs	r1, r1, #24
 399 0160 0120     		movs	r0, #1
 400 0162 FFF7FEFF 		bl	writeLCD
 401              	.LVL24:
  92:lcd.c         **** }
 402              		.loc 1 92 0
 403              		@ sp needed
 404              	.LVL25:
 405 0166 10BC     		pop	{r4}
 406 0168 01BC     		pop	{r0}
 407 016a 0047     		bx	r0
 408              		.cfi_endproc
 409              	.LFE5:
 410              		.size	LCD_WriteNumber, .-LCD_WriteNumber
 411              		.align	1
ARM GAS  C:\Users\embedded\AppData\Local\Temp\cc6zOmtj.s 			page 10


 412              		.global	LCD_WriteString
 413              		.code	16
 414              		.thumb_func
 415              		.type	LCD_WriteString, %function
 416              	LCD_WriteString:
 417              	.LFB6:
  93:lcd.c         **** 
  94:lcd.c         **** void LCD_WriteString ( char * string)
  95:lcd.c         **** {
 418              		.loc 1 95 0
 419              		.cfi_startproc
 420              		@ Function supports interworking.
 421              		@ args = 0, pretend = 0, frame = 0
 422              		@ frame_needed = 0, uses_anonymous_args = 0
 423              	.LVL26:
 424 016c 10B5     		push	{r4, lr}
 425              	.LCFI5:
 426              		.cfi_def_cfa_offset 8
 427              		.cfi_offset 4, -8
 428              		.cfi_offset 14, -4
 429 016e 0400     		movs	r4, r0
 430              	.LVL27:
 431              	.L30:
 432 0170 0134     		adds	r4, r4, #1
 433              	.LVL28:
  96:lcd.c         **** 	int c=0;
  97:lcd.c         **** 	delay37us();
  98:lcd.c         **** 	while (string[c]!='\0')
  99:lcd.c         **** 	{
 100:lcd.c         **** 		writeLCD (1, string[c]);
 101:lcd.c         **** 		c++;
 102:lcd.c         **** 		delay37us();
 434              		.loc 1 102 0
 435 0172 FFF7FEFF 		bl	delay37us
 436              	.LVL29:
  98:lcd.c         **** 	{
 437              		.loc 1 98 0
 438 0176 631E     		subs	r3, r4, #1
 439 0178 1978     		ldrb	r1, [r3]
 440 017a 0029     		cmp	r1, #0
 441 017c 03D0     		beq	.L31
 100:lcd.c         **** 		c++;
 442              		.loc 1 100 0
 443 017e 0120     		movs	r0, #1
 444 0180 FFF7FEFF 		bl	writeLCD
 445              	.LVL30:
 446 0184 F4E7     		b	.L30
 447              	.L31:
 103:lcd.c         **** 	}
 104:lcd.c         **** }
 448              		.loc 1 104 0
 449              		@ sp needed
 450 0186 10BC     		pop	{r4}
 451 0188 01BC     		pop	{r0}
 452 018a 0047     		bx	r0
 453              		.cfi_endproc
 454              	.LFE6:
ARM GAS  C:\Users\embedded\AppData\Local\Temp\cc6zOmtj.s 			page 11


 455              		.size	LCD_WriteString, .-LCD_WriteString
 456              		.align	1
 457              		.global	LCD_WriteCHARINT
 458              		.code	16
 459              		.thumb_func
 460              		.type	LCD_WriteCHARINT, %function
 461              	LCD_WriteCHARINT:
 462              	.LFB7:
 105:lcd.c         **** 
 106:lcd.c         **** void LCD_WriteCHARINT (unsigned int charint)
 107:lcd.c         **** {
 463              		.loc 1 107 0
 464              		.cfi_startproc
 465              		@ Function supports interworking.
 466              		@ args = 0, pretend = 0, frame = 0
 467              		@ frame_needed = 0, uses_anonymous_args = 0
 468              	.LVL31:
 469 018c 10B5     		push	{r4, lr}
 470              	.LCFI6:
 471              		.cfi_def_cfa_offset 8
 472              		.cfi_offset 4, -8
 473              		.cfi_offset 14, -4
 474              		.loc 1 107 0
 475 018e 0400     		movs	r4, r0
 108:lcd.c         **** 	delay37us();
 476              		.loc 1 108 0
 477 0190 FFF7FEFF 		bl	delay37us
 478              	.LVL32:
 109:lcd.c         **** 	writeLCD (1, charint);
 479              		.loc 1 109 0
 480 0194 2106     		lsls	r1, r4, #24
 481 0196 090E     		lsrs	r1, r1, #24
 482 0198 0120     		movs	r0, #1
 483 019a FFF7FEFF 		bl	writeLCD
 484              	.LVL33:
 110:lcd.c         **** }
 485              		.loc 1 110 0
 486              		@ sp needed
 487              	.LVL34:
 488 019e 10BC     		pop	{r4}
 489 01a0 01BC     		pop	{r0}
 490 01a2 0047     		bx	r0
 491              		.cfi_endproc
 492              	.LFE7:
 493              		.size	LCD_WriteCHARINT, .-LCD_WriteCHARINT
 494              		.align	1
 495              		.global	lcdBacklight
 496              		.code	16
 497              		.thumb_func
 498              		.type	lcdBacklight, %function
 499              	lcdBacklight:
 500              	.LFB8:
 111:lcd.c         **** 
 112:lcd.c         **** void lcdBacklight(tU8 onOff)
 113:lcd.c         **** {
 501              		.loc 1 113 0
 502              		.cfi_startproc
ARM GAS  C:\Users\embedded\AppData\Local\Temp\cc6zOmtj.s 			page 12


 503              		@ Function supports interworking.
 504              		@ args = 0, pretend = 0, frame = 0
 505              		@ frame_needed = 0, uses_anonymous_args = 0
 506              		@ link register save eliminated.
 507              	.LVL35:
 508 01a4 8023     		movs	r3, #128
 509 01a6 DB05     		lsls	r3, r3, #23
 114:lcd.c         **** 	if (onOff == TRUE)
 510              		.loc 1 114 0
 511 01a8 0128     		cmp	r0, #1
 512 01aa 01D1     		bne	.L34
 115:lcd.c         **** 	  IOSET0 = b_light;
 513              		.loc 1 115 0
 514 01ac 024A     		ldr	r2, .L37
 515 01ae 00E0     		b	.L36
 516              	.L34:
 116:lcd.c         **** 	else
 117:lcd.c         **** 	  IOCLR0 = b_light;
 517              		.loc 1 117 0
 518 01b0 024A     		ldr	r2, .L37+4
 519              	.L36:
 520 01b2 1360     		str	r3, [r2]
 118:lcd.c         **** }
 521              		.loc 1 118 0
 522              		@ sp needed
 523 01b4 7047     		bx	lr
 524              	.L38:
 525 01b6 C046     		.align	2
 526              	.L37:
 527 01b8 048002E0 		.word	-536707068
 528 01bc 0C8002E0 		.word	-536707060
 529              		.cfi_endproc
 530              	.LFE8:
 531              		.size	lcdBacklight, .-lcdBacklight
 532              	.Letext0:
 533              		.file 2 "general.h"