ARM GAS  C:\Users\embedded\AppData\Local\Temp\ccbK8Ck6.s 			page 1


   1              		.syntax unified
   2              		.cpu arm7tdmi
   3              		.fpu softvfp
   4              		.eabi_attribute 20, 1
   5              		.eabi_attribute 21, 1
   6              		.eabi_attribute 23, 3
   7              		.eabi_attribute 24, 1
   8              		.eabi_attribute 25, 1
   9              		.eabi_attribute 26, 1
  10              		.eabi_attribute 30, 4
  11              		.eabi_attribute 34, 0
  12              		.eabi_attribute 18, 4
  13              		.thumb
  14              		.syntax unified
  15              		.file	"main.c"
  16              		.text
  17              	.Ltext0:
  18              		.cfi_sections	.debug_frame
  19              		.align	1
  20              		.global	RTC_init
  21              		.code	16
  22              		.thumb_func
  23              		.type	RTC_init, %function
  24              	RTC_init:
  25              	.LFB0:
  26              		.file 1 "main.c"
   1:main.c        **** #include "general.h"
   2:main.c        **** #include "osapi.h"
   3:main.c        **** #include <lpc2xxx.h>
   4:main.c        **** #include <printf_P.h>
   5:main.c        **** #include <printf_init.h>
   6:main.c        **** #include <consol.h>
   7:main.c        **** #include <config.h>
   8:main.c        **** #include "irq/irq_handler.h"
   9:main.c        **** #include "timer.h"
  10:main.c        **** #include "VIC.h"
  11:main.c        **** #include "Common_Def.h"
  12:main.c        **** #include "i2c.h"
  13:main.c        **** #include "eeprom.h"
  14:main.c        **** #include "lcd.h"
  15:main.c        **** #include "DHT11.h"
  16:main.c        **** #include "delays.h"
  17:main.c        **** 
  18:main.c        **** void RTC_init()
  19:main.c        **** {
  27              		.loc 1 19 0
  28              		.cfi_startproc
  29              		@ Function supports interworking.
  30              		@ args = 0, pretend = 0, frame = 0
  31              		@ frame_needed = 0, uses_anonymous_args = 0
  20:main.c        **** 	  CCR  = 0x00000012; //
  32              		.loc 1 20 0
  33 0000 1223     		movs	r3, #18
  19:main.c        **** 	  CCR  = 0x00000012; //
  34              		.loc 1 19 0
  35 0002 70B5     		push	{r4, r5, r6, lr}
  36              	.LCFI0:
ARM GAS  C:\Users\embedded\AppData\Local\Temp\ccbK8Ck6.s 			page 2


  37              		.cfi_def_cfa_offset 16
  38              		.cfi_offset 4, -16
  39              		.cfi_offset 5, -12
  40              		.cfi_offset 6, -8
  41              		.cfi_offset 14, -4
  21:main.c        **** 	  CCR  = 0x00000010;
  22:main.c        **** 	  ILR  = 0x00000000;
  42              		.loc 1 22 0
  43 0004 0024     		movs	r4, #0
  20:main.c        **** 	  CCR  = 0x00000010;
  44              		.loc 1 20 0
  45 0006 104E     		ldr	r6, .L2
  46 0008 3360     		str	r3, [r6]
  21:main.c        **** 	  CCR  = 0x00000010;
  47              		.loc 1 21 0
  48 000a 023B     		subs	r3, r3, #2
  49 000c 3360     		str	r3, [r6]
  50              		.loc 1 22 0
  51 000e 0F4B     		ldr	r3, .L2+4
  52 0010 1C60     		str	r4, [r3]
  23:main.c        **** 	  CIIR = 0x00000000;
  53              		.loc 1 23 0
  54 0012 0F4B     		ldr	r3, .L2+8
  24:main.c        **** 	  AMR  = 0x00000000;
  25:main.c        **** 
  26:main.c        **** 	  delay_us(500000);
  55              		.loc 1 26 0
  56 0014 0F4D     		ldr	r5, .L2+12
  23:main.c        **** 	  CIIR = 0x00000000;
  57              		.loc 1 23 0
  58 0016 1C60     		str	r4, [r3]
  24:main.c        **** 	  AMR  = 0x00000000;
  59              		.loc 1 24 0
  60 0018 0F4B     		ldr	r3, .L2+16
  61              		.loc 1 26 0
  62 001a 2800     		movs	r0, r5
  24:main.c        **** 	  AMR  = 0x00000000;
  63              		.loc 1 24 0
  64 001c 1C60     		str	r4, [r3]
  65              		.loc 1 26 0
  66 001e FFF7FEFF 		bl	delay_us
  67              	.LVL0:
  27:main.c        **** 	  SEC  = 0; 	//licznik sekund
  28:main.c        **** 	  MINx  = 25;	//rejestr minut
  68              		.loc 1 28 0
  69 0022 1922     		movs	r2, #25
  27:main.c        **** 	  SEC  = 0; 	//licznik sekund
  70              		.loc 1 27 0
  71 0024 0D4B     		ldr	r3, .L2+20
  72 0026 1C60     		str	r4, [r3]
  73              		.loc 1 28 0
  74 0028 0D4B     		ldr	r3, .L2+24
  75 002a 1A60     		str	r2, [r3]
  29:main.c        **** 	  HOUR = 15;	//rejestr godzin
  76              		.loc 1 29 0
  77 002c 0D4B     		ldr	r3, .L2+28
  78 002e 0A3A     		subs	r2, r2, #10
ARM GAS  C:\Users\embedded\AppData\Local\Temp\ccbK8Ck6.s 			page 3


  79 0030 1A60     		str	r2, [r3]
  30:main.c        **** 	  delay_us(500000);
  80              		.loc 1 30 0
  81 0032 2800     		movs	r0, r5
  82 0034 FFF7FEFF 		bl	delay_us
  83              	.LVL1:
  31:main.c        **** 	  CCR  = 0x00000011;
  84              		.loc 1 31 0
  85 0038 1123     		movs	r3, #17
  32:main.c        **** 	  delay_us(500000);
  86              		.loc 1 32 0
  87 003a 2800     		movs	r0, r5
  31:main.c        **** 	  CCR  = 0x00000011;
  88              		.loc 1 31 0
  89 003c 3360     		str	r3, [r6]
  90              		.loc 1 32 0
  91 003e FFF7FEFF 		bl	delay_us
  92              	.LVL2:
  33:main.c        **** }
  93              		.loc 1 33 0
  94              		@ sp needed
  95 0042 70BC     		pop	{r4, r5, r6}
  96 0044 01BC     		pop	{r0}
  97 0046 0047     		bx	r0
  98              	.L3:
  99              		.align	2
 100              	.L2:
 101 0048 084002E0 		.word	-536723448
 102 004c 004002E0 		.word	-536723456
 103 0050 0C4002E0 		.word	-536723444
 104 0054 20A10700 		.word	500000
 105 0058 104002E0 		.word	-536723440
 106 005c 204002E0 		.word	-536723424
 107 0060 244002E0 		.word	-536723420
 108 0064 284002E0 		.word	-536723416
 109              		.cfi_endproc
 110              	.LFE0:
 111              		.size	RTC_init, .-RTC_init
 112              		.align	1
 113              		.global	testMotor
 114              		.code	16
 115              		.thumb_func
 116              		.type	testMotor, %function
 117              	testMotor:
 118              	.LFB1:
  34:main.c        **** 
  35:main.c        **** void testMotor(void)
  36:main.c        **** {
 119              		.loc 1 36 0
 120              		.cfi_startproc
 121              		@ Function supports interworking.
 122              		@ args = 0, pretend = 0, frame = 0
 123              		@ frame_needed = 0, uses_anonymous_args = 0
 124 0068 F8B5     		push	{r3, r4, r5, r6, r7, lr}
 125              	.LCFI1:
 126              		.cfi_def_cfa_offset 24
 127              		.cfi_offset 3, -24
ARM GAS  C:\Users\embedded\AppData\Local\Temp\ccbK8Ck6.s 			page 4


 128              		.cfi_offset 4, -20
 129              		.cfi_offset 5, -16
 130              		.cfi_offset 6, -12
 131              		.cfi_offset 7, -8
 132              		.cfi_offset 14, -4
  37:main.c        ****   static tU32 stepmotorSteps[4] = {0x00201000, 0x00200000, 0x00000000, 0x00001000};  //P0.21 and P0
  38:main.c        ****   static tU8 stepmotorIndex = 0;
  39:main.c        ****   tU8 i;
  40:main.c        **** 
  41:main.c        ****   IODIR0 |= 0x00201000;
  42:main.c        ****   IOCLR0  = stepmotorSteps[0];
 133              		.loc 1 42 0
 134 006a 0424     		movs	r4, #4
  43:main.c        **** 
  44:main.c        ****   for(i=0; i<4; i++)
  45:main.c        ****   {
  46:main.c        ****     //update to new step (forward)
  47:main.c        ****     stepmotorIndex = (stepmotorIndex + 1) & 0x03;
 135              		.loc 1 47 0
 136 006c 0327     		movs	r7, #3
  41:main.c        ****   IOCLR0  = stepmotorSteps[0];
 137              		.loc 1 41 0
 138 006e 0D4A     		ldr	r2, .L8
 139 0070 0D4D     		ldr	r5, .L8+4
 140 0072 1368     		ldr	r3, [r2]
  42:main.c        **** 
 141              		.loc 1 42 0
 142 0074 0D4E     		ldr	r6, .L8+8
  41:main.c        ****   IOCLR0  = stepmotorSteps[0];
 143              		.loc 1 41 0
 144 0076 2B43     		orrs	r3, r5
 145 0078 1360     		str	r3, [r2]
  42:main.c        **** 
 146              		.loc 1 42 0
 147 007a 3560     		str	r5, [r6]
 148              	.LVL3:
 149              	.L5:
 150              		.loc 1 47 0 discriminator 3
 151 007c 0C4A     		ldr	r2, .L8+12
 152 007e 1378     		ldrb	r3, [r2]
 153 0080 0133     		adds	r3, r3, #1
 154 0082 3B40     		ands	r3, r7
 155 0084 1370     		strb	r3, [r2]
  48:main.c        **** 
  49:main.c        ****     //output new step
  50:main.c        ****     IOCLR0 = stepmotorSteps[0];
  51:main.c        ****     IOSET0 = stepmotorSteps[stepmotorIndex];
 156              		.loc 1 51 0 discriminator 3
 157 0086 0B4A     		ldr	r2, .L8+16
 158 0088 9B00     		lsls	r3, r3, #2
 159 008a 9A58     		ldr	r2, [r3, r2]
 160 008c 0A4B     		ldr	r3, .L8+20
 161 008e 013C     		subs	r4, r4, #1
 162              	.LVL4:
  50:main.c        ****     IOSET0 = stepmotorSteps[stepmotorIndex];
 163              		.loc 1 50 0 discriminator 3
 164 0090 3560     		str	r5, [r6]
ARM GAS  C:\Users\embedded\AppData\Local\Temp\ccbK8Ck6.s 			page 5


 165 0092 2406     		lsls	r4, r4, #24
 166              		.loc 1 51 0 discriminator 3
 167 0094 1A60     		str	r2, [r3]
  52:main.c        ****     delay37us();
 168              		.loc 1 52 0 discriminator 3
 169 0096 FFF7FEFF 		bl	delay37us
 170              	.LVL5:
 171 009a 240E     		lsrs	r4, r4, #24
  44:main.c        ****   {
 172              		.loc 1 44 0 discriminator 3
 173 009c EED1     		bne	.L5
  53:main.c        ****   }
  54:main.c        **** }
 174              		.loc 1 54 0
 175              		@ sp needed
 176 009e F8BC     		pop	{r3, r4, r5, r6, r7}
 177 00a0 01BC     		pop	{r0}
 178 00a2 0047     		bx	r0
 179              	.L9:
 180              		.align	2
 181              	.L8:
 182 00a4 088002E0 		.word	-536707064
 183 00a8 00102000 		.word	2101248
 184 00ac 0C8002E0 		.word	-536707060
 185 00b0 00000000 		.word	.LANCHOR0
 186 00b4 00000000 		.word	.LANCHOR1
 187 00b8 048002E0 		.word	-536707068
 188              		.cfi_endproc
 189              	.LFE1:
 190              		.size	testMotor, .-testMotor
 191              		.global	__aeabi_uidiv
 192              		.global	__aeabi_uidivmod
 193              		.global	__aeabi_idivmod
 194              		.global	__aeabi_idiv
 195              		.section	.text.startup,"ax",%progbits
 196              		.align	1
 197              		.global	main
 198              		.code	16
 199              		.thumb_func
 200              		.type	main, %function
 201              	main:
 202              	.LFB3:
  55:main.c        **** 
  56:main.c        **** static void init_irq (tU32 miliseconds)
  57:main.c        **** {
  58:main.c        ****   //Zainicjuj VIC dla przerwań od Timera #1
  59:main.c        ****   VICIntSelect &= ~TIMER_0_IRQ;           //Przerwanie od Timera #1 przypisane do IRQ (nie do FIQ)
  60:main.c        ****   VICVectAddr5  = (tU32)IRQ_Test;         //adres procedury przerwania
  61:main.c        ****   VICVectCntl5  = VIC_ENABLE_SLOT | TIMER_0_IRQ_NO;
  62:main.c        ****   //Przypisanie i odblokowanie slotu w VIC
  63:main.c        ****   VICIntEnable  = TIMER_0_IRQ;            //Zezwolenie na przerwania od Timera #1
  64:main.c        **** 
  65:main.c        ****   T0TCR = TIMER_RESET;                    //Zatrzymaj i zresetuj
  66:main.c        ****   T0PR  = 0;                              //Preskaler nieużywany
  67:main.c        ****   T0MR0 = ((tU64)miliseconds)*((tU64)PERIPHERAL_CLOCK)/1000;
  68:main.c        ****   T0IR  = 0xff;                           //Resetowanie flag przerwań
  69:main.c        ****   T0MCR = MR0_I | MR0_R;                  //Generuj okresowe przerwania
ARM GAS  C:\Users\embedded\AppData\Local\Temp\ccbK8Ck6.s 			page 6


  70:main.c        ****   T0TCR = TIMER_RUN;                      //Uruchom timer
  71:main.c        **** }
  72:main.c        **** //-----------------------------------------------------------------------------------    MAIN    --
  73:main.c        **** 
  74:main.c        **** int main(void)
  75:main.c        **** {
 203              		.loc 1 75 0
 204              		.cfi_startproc
 205              		@ Function supports interworking.
 206              		@ args = 0, pretend = 0, frame = 24
 207              		@ frame_needed = 0, uses_anonymous_args = 0
 208              	.LVL6:
 209 0000 F0B5     		push	{r4, r5, r6, r7, lr}
 210              	.LCFI2:
 211              		.cfi_def_cfa_offset 20
 212              		.cfi_offset 4, -20
 213              		.cfi_offset 5, -16
 214              		.cfi_offset 6, -12
 215              		.cfi_offset 7, -8
 216              		.cfi_offset 14, -4
  76:main.c        **** 	unsigned int switchStatus;
  77:main.c        **** 	tU8 temp_humid_data[5];
  78:main.c        **** 	int mode = 1 ;
  79:main.c        **** 	int cl_scr =0;
  80:main.c        **** 	RTC_init();
  81:main.c        **** 	initLCD();
  82:main.c        **** 	lcdBacklight(TRUE);
  83:main.c        **** 
  84:main.c        **** 	setLCD();
  85:main.c        **** 	PINSEL0 &= 0x00000000;
 217              		.loc 1 85 0
 218 0002 0024     		movs	r4, #0
  75:main.c        **** 	unsigned int switchStatus;
 219              		.loc 1 75 0
 220 0004 87B0     		sub	sp, sp, #28
 221              	.LCFI3:
 222              		.cfi_def_cfa_offset 48
  80:main.c        **** 	initLCD();
 223              		.loc 1 80 0
 224 0006 FFF7FEFF 		bl	RTC_init
 225              	.LVL7:
  81:main.c        **** 	lcdBacklight(TRUE);
 226              		.loc 1 81 0
 227 000a FFF7FEFF 		bl	initLCD
 228              	.LVL8:
  82:main.c        **** 
 229              		.loc 1 82 0
 230 000e 0120     		movs	r0, #1
 231 0010 FFF7FEFF 		bl	lcdBacklight
 232              	.LVL9:
  84:main.c        **** 	PINSEL0 &= 0x00000000;
 233              		.loc 1 84 0
 234 0014 FFF7FEFF 		bl	setLCD
 235              	.LVL10:
  86:main.c        **** 	IODIR1 |=  (1 << 14);
 236              		.loc 1 86 0
 237 0018 8021     		movs	r1, #128
ARM GAS  C:\Users\embedded\AppData\Local\Temp\ccbK8Ck6.s 			page 7


  85:main.c        **** 	IODIR1 |=  (1 << 14);
 238              		.loc 1 85 0
 239 001a A04B     		ldr	r3, .L30
 240 001c 1A68     		ldr	r2, [r3]
 241 001e 1C60     		str	r4, [r3]
 242              		.loc 1 86 0
 243 0020 9F4A     		ldr	r2, .L30+4
 244 0022 1368     		ldr	r3, [r2]
 245 0024 C901     		lsls	r1, r1, #7
 246 0026 0B43     		orrs	r3, r1
 247 0028 1360     		str	r3, [r2]
  87:main.c        **** 
  88:main.c        ****     tU8 data[3]; // bufor do przekazywania temperatury przez LM75
  89:main.c        **** 	i2cInit();   // zainicjowanie magistrali i2c
 248              		.loc 1 89 0
 249 002a FFF7FEFF 		bl	i2cInit
 250              	.LVL11:
 251              	.LBB6:
 252              	.LBB7:
  59:main.c        ****   VICVectAddr5  = (tU32)IRQ_Test;         //adres procedury przerwania
 253              		.loc 1 59 0
 254 002e 1022     		movs	r2, #16
 255 0030 9C49     		ldr	r1, .L30+8
 256 0032 0B68     		ldr	r3, [r1]
 257 0034 9343     		bics	r3, r2
 258 0036 0B60     		str	r3, [r1]
  60:main.c        ****   VICVectCntl5  = VIC_ENABLE_SLOT | TIMER_0_IRQ_NO;
 259              		.loc 1 60 0
 260 0038 9B4B     		ldr	r3, .L30+12
 261 003a 9C49     		ldr	r1, .L30+16
 262 003c 1960     		str	r1, [r3]
  61:main.c        ****   //Przypisanie i odblokowanie slotu w VIC
 263              		.loc 1 61 0
 264 003e 2421     		movs	r1, #36
 265 0040 9B4B     		ldr	r3, .L30+20
 266 0042 1960     		str	r1, [r3]
  63:main.c        **** 
 267              		.loc 1 63 0
 268 0044 9B4B     		ldr	r3, .L30+24
 269 0046 1A60     		str	r2, [r3]
  65:main.c        ****   T0PR  = 0;                              //Preskaler nieużywany
 270              		.loc 1 65 0
 271 0048 9B4B     		ldr	r3, .L30+28
 272 004a 0E3A     		subs	r2, r2, #14
 273 004c 1A60     		str	r2, [r3]
  66:main.c        ****   T0MR0 = ((tU64)miliseconds)*((tU64)PERIPHERAL_CLOCK)/1000;
 274              		.loc 1 66 0
 275 004e 9B4A     		ldr	r2, .L30+32
  67:main.c        ****   T0IR  = 0xff;                           //Resetowanie flag przerwań
 276              		.loc 1 67 0
 277 0050 9B49     		ldr	r1, .L30+36
  66:main.c        ****   T0MR0 = ((tU64)miliseconds)*((tU64)PERIPHERAL_CLOCK)/1000;
 278              		.loc 1 66 0
 279 0052 1460     		str	r4, [r2]
  67:main.c        ****   T0IR  = 0xff;                           //Resetowanie flag przerwań
 280              		.loc 1 67 0
 281 0054 9B4A     		ldr	r2, .L30+40
ARM GAS  C:\Users\embedded\AppData\Local\Temp\ccbK8Ck6.s 			page 8


 282 0056 1160     		str	r1, [r2]
  68:main.c        ****   T0MCR = MR0_I | MR0_R;                  //Generuj okresowe przerwania
 283              		.loc 1 68 0
 284 0058 FF21     		movs	r1, #255
 285 005a 9B4A     		ldr	r2, .L30+44
 286 005c 1160     		str	r1, [r2]
  69:main.c        ****   T0TCR = TIMER_RUN;                      //Uruchom timer
 287              		.loc 1 69 0
 288 005e 9B4A     		ldr	r2, .L30+48
 289 0060 FC39     		subs	r1, r1, #252
  70:main.c        **** }
 290              		.loc 1 70 0
 291 0062 0134     		adds	r4, r4, #1
  69:main.c        ****   T0TCR = TIMER_RUN;                      //Uruchom timer
 292              		.loc 1 69 0
 293 0064 1160     		str	r1, [r2]
  70:main.c        **** }
 294              		.loc 1 70 0
 295 0066 1C60     		str	r4, [r3]
 296              	.LVL12:
 297              	.L20:
 298              	.LBE7:
 299              	.LBE6:
  90:main.c        **** 
  91:main.c        **** 	//tU8 humidity_integer, DH11TEMP, CKSUM, h, CK1;
  92:main.c        **** 	init_irq(10);
  93:main.c        **** 	while (1)
  94:main.c        **** 		{
  95:main.c        **** 
  96:main.c        **** 		if (1 == lm75Read(0x90, &data[0], 3))
 300              		.loc 1 96 0
 301 0068 03AE     		add	r6, sp, #12
 302 006a 0322     		movs	r2, #3
 303 006c 3100     		movs	r1, r6
 304 006e 9020     		movs	r0, #144
 305 0070 FFF7FEFF 		bl	lm75Read
 306              	.LVL13:
 307 0074 964D     		ldr	r5, .L30+52
  97:main.c        **** 			{
  98:main.c        **** 				temp = (((tU16)data[0]<<8) + (tU16)data[1]) >> 7;
  99:main.c        **** 			}
 100:main.c        **** 			else
 101:main.c        **** 			{
 102:main.c        **** 				temp = 1;
 308              		.loc 1 102 0
 309 0076 0123     		movs	r3, #1
  96:main.c        **** 			{
 310              		.loc 1 96 0
 311 0078 0128     		cmp	r0, #1
 312 007a 04D1     		bne	.L28
  98:main.c        **** 			}
 313              		.loc 1 98 0
 314 007c 3378     		ldrb	r3, [r6]
 315 007e 7278     		ldrb	r2, [r6, #1]
 316 0080 1B02     		lsls	r3, r3, #8
 317 0082 9B18     		adds	r3, r3, r2
 318 0084 DB11     		asrs	r3, r3, #7
ARM GAS  C:\Users\embedded\AppData\Local\Temp\ccbK8Ck6.s 			page 9


 319              	.L28:
 320              		.loc 1 102 0
 321 0086 2B80     		strh	r3, [r5]
 103:main.c        **** 			}
 104:main.c        **** 
 105:main.c        **** 			if(cl_scr == 1)
 106:main.c        **** 			{
 107:main.c        **** 			  LCD_WriteFunction(0x01);
 108:main.c        **** 			  cl_scr = 0;
 109:main.c        **** 			}
 110:main.c        **** 
 111:main.c        **** 			if (mode == 1) //ekran z czasem
 322              		.loc 1 111 0
 323 0088 012C     		cmp	r4, #1
 324 008a 3DD1     		bne	.L13
 112:main.c        **** 			{
 113:main.c        **** 				LCD_WriteFunction(0x80);
 325              		.loc 1 113 0
 326 008c 8020     		movs	r0, #128
 327 008e FFF7FEFF 		bl	LCD_WriteFunction
 328              	.LVL14:
 114:main.c        **** 				LCD_WriteString("Time:");
 115:main.c        **** 				LCD_WriteFunction(0x80 | 0x40);
 116:main.c        **** 				LCD_WriteNumber(HOUR/10);
 329              		.loc 1 116 0
 330 0092 904D     		ldr	r5, .L30+56
 114:main.c        **** 				LCD_WriteString("Time:");
 331              		.loc 1 114 0
 332 0094 9048     		ldr	r0, .L30+60
 333 0096 FFF7FEFF 		bl	LCD_WriteString
 334              	.LVL15:
 115:main.c        **** 				LCD_WriteNumber(HOUR/10);
 335              		.loc 1 115 0
 336 009a C020     		movs	r0, #192
 337 009c FFF7FEFF 		bl	LCD_WriteFunction
 338              	.LVL16:
 339              		.loc 1 116 0
 340 00a0 2868     		ldr	r0, [r5]
 341 00a2 0A21     		movs	r1, #10
 342 00a4 FFF7FEFF 		bl	__aeabi_uidiv
 343              	.LVL17:
 344 00a8 FFF7FEFF 		bl	LCD_WriteNumber
 345              	.LVL18:
 117:main.c        **** 				LCD_WriteNumber(HOUR%10);
 346              		.loc 1 117 0
 347 00ac 2868     		ldr	r0, [r5]
 348 00ae 0A21     		movs	r1, #10
 349 00b0 FFF7FEFF 		bl	__aeabi_uidivmod
 350              	.LVL19:
 351 00b4 0800     		movs	r0, r1
 352 00b6 FFF7FEFF 		bl	LCD_WriteNumber
 353              	.LVL20:
 118:main.c        **** 				LCD_WriteString(":");
 354              		.loc 1 118 0
 355 00ba 884D     		ldr	r5, .L30+64
 119:main.c        **** 				LCD_WriteNumber(MINx/10);
 356              		.loc 1 119 0
ARM GAS  C:\Users\embedded\AppData\Local\Temp\ccbK8Ck6.s 			page 10


 357 00bc 884E     		ldr	r6, .L30+68
 118:main.c        **** 				LCD_WriteString(":");
 358              		.loc 1 118 0
 359 00be 2800     		movs	r0, r5
 360 00c0 FFF7FEFF 		bl	LCD_WriteString
 361              	.LVL21:
 362              		.loc 1 119 0
 363 00c4 3068     		ldr	r0, [r6]
 364 00c6 0A21     		movs	r1, #10
 365 00c8 FFF7FEFF 		bl	__aeabi_uidiv
 366              	.LVL22:
 367 00cc FFF7FEFF 		bl	LCD_WriteNumber
 368              	.LVL23:
 120:main.c        **** 				LCD_WriteNumber(MINx%10);
 369              		.loc 1 120 0
 370 00d0 3068     		ldr	r0, [r6]
 371 00d2 0A21     		movs	r1, #10
 372 00d4 FFF7FEFF 		bl	__aeabi_uidivmod
 373              	.LVL24:
 374 00d8 0800     		movs	r0, r1
 375 00da FFF7FEFF 		bl	LCD_WriteNumber
 376              	.LVL25:
 121:main.c        **** 				LCD_WriteString(":");
 377              		.loc 1 121 0
 378 00de 2800     		movs	r0, r5
 122:main.c        **** 				LCD_WriteNumber(SEC/10);
 379              		.loc 1 122 0
 380 00e0 804D     		ldr	r5, .L30+72
 121:main.c        **** 				LCD_WriteString(":");
 381              		.loc 1 121 0
 382 00e2 FFF7FEFF 		bl	LCD_WriteString
 383              	.LVL26:
 384              		.loc 1 122 0
 385 00e6 2868     		ldr	r0, [r5]
 386 00e8 0A21     		movs	r1, #10
 387 00ea FFF7FEFF 		bl	__aeabi_uidiv
 388              	.LVL27:
 389 00ee FFF7FEFF 		bl	LCD_WriteNumber
 390              	.LVL28:
 123:main.c        **** 				LCD_WriteNumber(SEC%10);
 391              		.loc 1 123 0
 392 00f2 2868     		ldr	r0, [r5]
 393 00f4 0A21     		movs	r1, #10
 394 00f6 FFF7FEFF 		bl	__aeabi_uidivmod
 395              	.LVL29:
 396 00fa 0800     		movs	r0, r1
 397 00fc FFF7FEFF 		bl	LCD_WriteNumber
 398              	.LVL30:
 124:main.c        **** 
 125:main.c        **** 				delay_us(1);
 399              		.loc 1 125 0
 400 0100 2000     		movs	r0, r4
 401 0102 FFF7FEFF 		bl	delay_us
 402              	.LVL31:
 403 0106 A4E0     		b	.L14
 404              	.L13:
 126:main.c        **** 
ARM GAS  C:\Users\embedded\AppData\Local\Temp\ccbK8Ck6.s 			page 11


 127:main.c        **** 			}
 128:main.c        **** 
 129:main.c        **** 			if (mode == 2) //ekran z temperatura
 405              		.loc 1 129 0
 406 0108 022C     		cmp	r4, #2
 407 010a 65D1     		bne	.L15
 130:main.c        **** 			{
 131:main.c        **** 				dht11_request();
 408              		.loc 1 131 0
 409 010c FFF7FEFF 		bl	dht11_request
 410              	.LVL32:
 411              	.LBB8:
 132:main.c        **** 				dht11_response();
 133:main.c        **** 				for(int i=0; i<5; i++)
 412              		.loc 1 133 0
 413 0110 0026     		movs	r6, #0
 414              	.LBE8:
 132:main.c        **** 				dht11_response();
 415              		.loc 1 132 0
 416 0112 FFF7FEFF 		bl	dht11_response
 417              	.LVL33:
 418              	.L16:
 419              	.LBB9:
 134:main.c        **** 				{
 135:main.c        **** 					temp_humid_data[i]=dht11_data();
 420              		.loc 1 135 0 discriminator 3
 421 0116 FFF7FEFF 		bl	dht11_data
 422              	.LVL34:
 423 011a 04AA     		add	r2, sp, #16
 424 011c B054     		strb	r0, [r6, r2]
 133:main.c        **** 				{
 425              		.loc 1 133 0 discriminator 3
 426 011e 0136     		adds	r6, r6, #1
 427              	.LVL35:
 428 0120 052E     		cmp	r6, #5
 429 0122 F8D1     		bne	.L16
 430              	.LBE9:
 136:main.c        **** 				}
 137:main.c        **** 
 138:main.c        **** 				if ((temp_humid_data[0]+temp_humid_data[1]+temp_humid_data[2]+temp_humid_data[3]) == temp_humid
 431              		.loc 1 138 0
 432 0124 D378     		ldrb	r3, [r2, #3]
 433 0126 9778     		ldrb	r7, [r2, #2]
 434 0128 0193     		str	r3, [sp, #4]
 435 012a 1178     		ldrb	r1, [r2]
 436 012c 5378     		ldrb	r3, [r2, #1]
 437 012e CB18     		adds	r3, r1, r3
 438 0130 0199     		ldr	r1, [sp, #4]
 439 0132 DB19     		adds	r3, r3, r7
 440 0134 1279     		ldrb	r2, [r2, #4]
 441 0136 5B18     		adds	r3, r3, r1
 442 0138 6B4E     		ldr	r6, .L30+76
 443              	.LVL36:
 444 013a 9342     		cmp	r3, r2
 445 013c 25D1     		bne	.L17
 139:main.c        **** 				{
 140:main.c        **** 					LCD_WriteFunction(0x80);
ARM GAS  C:\Users\embedded\AppData\Local\Temp\ccbK8Ck6.s 			page 12


 446              		.loc 1 140 0
 447 013e 8020     		movs	r0, #128
 448 0140 FFF7FEFF 		bl	LCD_WriteFunction
 449              	.LVL37:
 141:main.c        **** 					LCD_WriteString ("Temp OUT: ");
 450              		.loc 1 141 0
 451 0144 6948     		ldr	r0, .L30+80
 452 0146 FFF7FEFF 		bl	LCD_WriteString
 453              	.LVL38:
 142:main.c        **** 					LCD_WriteCHARINT((((temp_humid_data[2]%1000)%100)/10 + 48));
 454              		.loc 1 142 0
 455 014a 3800     		movs	r0, r7
 456 014c 6421     		movs	r1, #100
 457 014e FFF7FEFF 		bl	__aeabi_idivmod
 458              	.LVL39:
 459 0152 0F00     		movs	r7, r1
 460 0154 0A21     		movs	r1, #10
 461 0156 3800     		movs	r0, r7
 462 0158 FFF7FEFF 		bl	__aeabi_idiv
 463              	.LVL40:
 464 015c 3030     		adds	r0, r0, #48
 465 015e FFF7FEFF 		bl	LCD_WriteCHARINT
 466              	.LVL41:
 143:main.c        **** 					LCD_WriteCHARINT((((temp_humid_data[2]%1000)%100)%10 + 48));
 467              		.loc 1 143 0
 468 0162 0A21     		movs	r1, #10
 469 0164 3800     		movs	r0, r7
 470 0166 FFF7FEFF 		bl	__aeabi_idivmod
 471              	.LVL42:
 472 016a 3031     		adds	r1, r1, #48
 473 016c 0800     		movs	r0, r1
 474 016e FFF7FEFF 		bl	LCD_WriteCHARINT
 475              	.LVL43:
 144:main.c        **** 					LCD_WriteString (".");
 476              		.loc 1 144 0
 477 0172 3000     		movs	r0, r6
 478 0174 FFF7FEFF 		bl	LCD_WriteString
 479              	.LVL44:
 145:main.c        **** 					LCD_WriteNumber(temp_humid_data[3]);
 480              		.loc 1 145 0
 481 0178 0198     		ldr	r0, [sp, #4]
 482 017a FFF7FEFF 		bl	LCD_WriteNumber
 483              	.LVL45:
 146:main.c        **** 					LCD_WriteCHARINT(223);
 484              		.loc 1 146 0
 485 017e DF20     		movs	r0, #223
 486 0180 FFF7FEFF 		bl	LCD_WriteCHARINT
 487              	.LVL46:
 147:main.c        **** 					LCD_WriteString ("C");
 488              		.loc 1 147 0
 489 0184 5A48     		ldr	r0, .L30+84
 490 0186 FFF7FEFF 		bl	LCD_WriteString
 491              	.LVL47:
 492              	.L17:
 148:main.c        **** 				}
 149:main.c        **** 
 150:main.c        **** 					LCD_WriteFunction(0x80 | 0x40);
ARM GAS  C:\Users\embedded\AppData\Local\Temp\ccbK8Ck6.s 			page 13


 493              		.loc 1 150 0
 494 018a C020     		movs	r0, #192
 495 018c FFF7FEFF 		bl	LCD_WriteFunction
 496              	.LVL48:
 151:main.c        **** 					LCD_WriteString ("Temp IN:  ");
 497              		.loc 1 151 0
 498 0190 5848     		ldr	r0, .L30+88
 499 0192 FFF7FEFF 		bl	LCD_WriteString
 500              	.LVL49:
 152:main.c        **** 					LCD_WriteNumber((temp/2)/10);
 501              		.loc 1 152 0
 502 0196 1421     		movs	r1, #20
 503 0198 2888     		ldrh	r0, [r5]
 504 019a FFF7FEFF 		bl	__aeabi_uidiv
 505              	.LVL50:
 506 019e 0004     		lsls	r0, r0, #16
 507 01a0 000C     		lsrs	r0, r0, #16
 508 01a2 FFF7FEFF 		bl	LCD_WriteNumber
 509              	.LVL51:
 153:main.c        **** 					LCD_WriteNumber((temp/2)%10);
 510              		.loc 1 153 0
 511 01a6 2888     		ldrh	r0, [r5]
 512 01a8 0A21     		movs	r1, #10
 513 01aa 4008     		lsrs	r0, r0, #1
 514 01ac FFF7FEFF 		bl	__aeabi_uidivmod
 515              	.LVL52:
 516 01b0 0804     		lsls	r0, r1, #16
 517 01b2 000C     		lsrs	r0, r0, #16
 518 01b4 FFF7FEFF 		bl	LCD_WriteNumber
 519              	.LVL53:
 154:main.c        **** 					LCD_WriteString (".");
 520              		.loc 1 154 0
 521 01b8 3000     		movs	r0, r6
 522 01ba FFF7FEFF 		bl	LCD_WriteString
 523              	.LVL54:
 155:main.c        **** 					LCD_WriteNumber((temp&1)*5);
 524              		.loc 1 155 0
 525 01be 0123     		movs	r3, #1
 526 01c0 2888     		ldrh	r0, [r5]
 527 01c2 1840     		ands	r0, r3
 528 01c4 0433     		adds	r3, r3, #4
 529 01c6 4343     		muls	r3, r0
 530 01c8 1800     		movs	r0, r3
 531 01ca FFF7FEFF 		bl	LCD_WriteNumber
 532              	.LVL55:
 156:main.c        **** 					LCD_WriteCHARINT(223); //stopien
 533              		.loc 1 156 0
 534 01ce DF20     		movs	r0, #223
 535 01d0 FFF7FEFF 		bl	LCD_WriteCHARINT
 536              	.LVL56:
 157:main.c        **** 					LCD_WriteString ("C");
 537              		.loc 1 157 0
 538 01d4 4648     		ldr	r0, .L30+84
 539 01d6 34E0     		b	.L29
 540              	.L15:
 158:main.c        **** 
 159:main.c        **** 					delay_sec(1);
ARM GAS  C:\Users\embedded\AppData\Local\Temp\ccbK8Ck6.s 			page 14


 160:main.c        **** 					delay_ms(50);
 161:main.c        **** 				}
 162:main.c        **** 
 163:main.c        **** 			if (mode == 3) //ekran z temperatura
 541              		.loc 1 163 0
 542 01d8 032C     		cmp	r4, #3
 543 01da 3AD1     		bne	.L14
 164:main.c        **** 			{
 165:main.c        **** 				LCD_WriteFunction(0x80);
 544              		.loc 1 165 0
 545 01dc 8020     		movs	r0, #128
 546 01de FFF7FEFF 		bl	LCD_WriteFunction
 547              	.LVL57:
 166:main.c        **** 				LCD_WriteString ("Humidity:");
 548              		.loc 1 166 0
 549 01e2 4548     		ldr	r0, .L30+92
 550 01e4 FFF7FEFF 		bl	LCD_WriteString
 551              	.LVL58:
 167:main.c        **** 				LCD_WriteFunction(0x80 | 0x40);
 552              		.loc 1 167 0
 553 01e8 C020     		movs	r0, #192
 554 01ea FFF7FEFF 		bl	LCD_WriteFunction
 555              	.LVL59:
 556              	.LBB10:
 168:main.c        **** 
 169:main.c        **** 				dht11_request();
 170:main.c        **** 				dht11_response();
 171:main.c        **** 
 172:main.c        **** 				for(int i=0; i<5; i++)
 557              		.loc 1 172 0
 558 01ee 0025     		movs	r5, #0
 559              	.LBE10:
 169:main.c        **** 				dht11_response();
 560              		.loc 1 169 0
 561 01f0 FFF7FEFF 		bl	dht11_request
 562              	.LVL60:
 170:main.c        **** 
 563              		.loc 1 170 0
 564 01f4 FFF7FEFF 		bl	dht11_response
 565              	.LVL61:
 566              	.L18:
 567              	.LBB11:
 173:main.c        **** 				{
 174:main.c        **** 					temp_humid_data[i]=dht11_data();
 568              		.loc 1 174 0 discriminator 3
 569 01f8 FFF7FEFF 		bl	dht11_data
 570              	.LVL62:
 571 01fc 04AB     		add	r3, sp, #16
 572 01fe E854     		strb	r0, [r5, r3]
 172:main.c        **** 				{
 573              		.loc 1 172 0 discriminator 3
 574 0200 0135     		adds	r5, r5, #1
 575              	.LVL63:
 576 0202 052D     		cmp	r5, #5
 577 0204 F8D1     		bne	.L18
 578              	.LBE11:
 175:main.c        **** 				}
ARM GAS  C:\Users\embedded\AppData\Local\Temp\ccbK8Ck6.s 			page 15


 176:main.c        **** 
 177:main.c        **** 				if((temp_humid_data[0]+temp_humid_data[1]+temp_humid_data[2]+temp_humid_data[3]) == temp_humid_
 579              		.loc 1 177 0
 580 0206 1878     		ldrb	r0, [r3]
 581 0208 5A78     		ldrb	r2, [r3, #1]
 582 020a 9978     		ldrb	r1, [r3, #2]
 583 020c 1218     		adds	r2, r2, r0
 584 020e 5218     		adds	r2, r2, r1
 585 0210 D978     		ldrb	r1, [r3, #3]
 586 0212 1B79     		ldrb	r3, [r3, #4]
 587 0214 5218     		adds	r2, r2, r1
 588 0216 9A42     		cmp	r2, r3
 589 0218 15D1     		bne	.L19
 178:main.c        **** 				{
 179:main.c        **** 
 180:main.c        **** 				LCD_WriteCHARINT((((temp_humid_data[0]%1000)%100)/10 + 48));
 590              		.loc 1 180 0
 591 021a 6421     		movs	r1, #100
 592 021c FFF7FEFF 		bl	__aeabi_idivmod
 593              	.LVL64:
 594 0220 0D00     		movs	r5, r1
 595              	.LVL65:
 596 0222 0A21     		movs	r1, #10
 597 0224 2800     		movs	r0, r5
 598 0226 FFF7FEFF 		bl	__aeabi_idiv
 599              	.LVL66:
 600 022a 3030     		adds	r0, r0, #48
 601 022c FFF7FEFF 		bl	LCD_WriteCHARINT
 602              	.LVL67:
 181:main.c        **** 				LCD_WriteCHARINT((((temp_humid_data[0]%1000)%100)%10 + 48));
 603              		.loc 1 181 0
 604 0230 0A21     		movs	r1, #10
 605 0232 2800     		movs	r0, r5
 606 0234 FFF7FEFF 		bl	__aeabi_idivmod
 607              	.LVL68:
 608 0238 3031     		adds	r1, r1, #48
 609 023a 0800     		movs	r0, r1
 610 023c FFF7FEFF 		bl	LCD_WriteCHARINT
 611              	.LVL69:
 182:main.c        **** 				LCD_WriteString("%");
 612              		.loc 1 182 0
 613 0240 2E48     		ldr	r0, .L30+96
 614              	.L29:
 615 0242 FFF7FEFF 		bl	LCD_WriteString
 616              	.LVL70:
 617              	.L19:
 183:main.c        **** 
 184:main.c        **** 				}
 185:main.c        **** 
 186:main.c        **** 				delay_sec(1);
 618              		.loc 1 186 0
 619 0246 0120     		movs	r0, #1
 620 0248 FFF7FEFF 		bl	delay_sec
 621              	.LVL71:
 187:main.c        **** 				delay_ms(50);
 622              		.loc 1 187 0
 623 024c 3220     		movs	r0, #50
ARM GAS  C:\Users\embedded\AppData\Local\Temp\ccbK8Ck6.s 			page 16


 624 024e FFF7FEFF 		bl	delay_ms
 625              	.LVL72:
 626              	.L14:
 188:main.c        **** 			}
 189:main.c        **** 
 190:main.c        **** 			switchStatus = (IOPIN0>>14) & 0x01;
 627              		.loc 1 190 0
 628 0252 2B4B     		ldr	r3, .L30+100
 629 0254 1B68     		ldr	r3, [r3]
 630              	.LVL73:
 191:main.c        **** 
 192:main.c        **** 			if (switchStatus == 0)
 631              		.loc 1 192 0
 632 0256 5B04     		lsls	r3, r3, #17
 633 0258 00D5     		bpl	.LCB515
 634 025a 05E7     		b	.L20	@long jump
 635              	.LCB515:
 636              	.LVL74:
 193:main.c        **** 			{
 194:main.c        **** 				if (mode < 3) mode++;
 637              		.loc 1 194 0
 638 025c 022C     		cmp	r4, #2
 639 025e 14DC     		bgt	.L21
 640              	.LVL75:
 195:main.c        **** 				else mode=1;
 196:main.c        **** 
 197:main.c        **** 				if (mode == 1)
 198:main.c        **** 				{
 199:main.c        **** 					LCD_WriteFunction(0x01);
 200:main.c        **** 					LCD_WriteString ("Time:");
 201:main.c        **** 				}
 202:main.c        **** 
 203:main.c        **** 				if (mode == 2)
 641              		.loc 1 203 0 discriminator 1
 642 0260 012C     		cmp	r4, #1
 643 0262 07D1     		bne	.L22
 204:main.c        **** 				{
 205:main.c        **** 					LCD_WriteFunction(0x01);
 644              		.loc 1 205 0
 645 0264 2000     		movs	r0, r4
 646 0266 FFF7FEFF 		bl	LCD_WriteFunction
 647              	.LVL76:
 206:main.c        **** 					LCD_WriteString ("Temp");
 648              		.loc 1 206 0
 649 026a 2648     		ldr	r0, .L30+104
 650 026c FFF7FEFF 		bl	LCD_WriteString
 651              	.LVL77:
 194:main.c        **** 				else mode=1;
 652              		.loc 1 194 0
 653 0270 0134     		adds	r4, r4, #1
 654              	.LVL78:
 655 0272 06E0     		b	.L23
 656              	.LVL79:
 657              	.L22:
 207:main.c        **** 				}
 208:main.c        **** 				if (mode == 3)
 209:main.c        **** 				{
ARM GAS  C:\Users\embedded\AppData\Local\Temp\ccbK8Ck6.s 			page 17


 210:main.c        **** 					LCD_WriteFunction(0x01);
 658              		.loc 1 210 0
 659 0274 0120     		movs	r0, #1
 660 0276 FFF7FEFF 		bl	LCD_WriteFunction
 661              	.LVL80:
 211:main.c        **** 					LCD_WriteString ("Humidity:");
 662              		.loc 1 211 0
 663 027a 1F48     		ldr	r0, .L30+92
 664 027c FFF7FEFF 		bl	LCD_WriteString
 665              	.LVL81:
 666 0280 0324     		movs	r4, #3
 667              	.LVL82:
 668              	.L23:
 212:main.c        **** 				}
 213:main.c        **** 
 214:main.c        **** 				delay_sec (1);
 669              		.loc 1 214 0
 670 0282 0120     		movs	r0, #1
 671 0284 FFF7FEFF 		bl	delay_sec
 672              	.LVL83:
 673 0288 EEE6     		b	.L20
 674              	.LVL84:
 675              	.L21:
 199:main.c        **** 					LCD_WriteString ("Time:");
 676              		.loc 1 199 0
 677 028a 0120     		movs	r0, #1
 678 028c FFF7FEFF 		bl	LCD_WriteFunction
 679              	.LVL85:
 200:main.c        **** 				}
 680              		.loc 1 200 0
 681 0290 1148     		ldr	r0, .L30+60
 682 0292 FFF7FEFF 		bl	LCD_WriteString
 683              	.LVL86:
 195:main.c        **** 
 684              		.loc 1 195 0
 685 0296 0124     		movs	r4, #1
 686 0298 F3E7     		b	.L23
 687              	.L31:
 688 029a C046     		.align	2
 689              	.L30:
 690 029c 00C002E0 		.word	-536690688
 691 02a0 188002E0 		.word	-536707048
 692 02a4 0CF0FFFF 		.word	-4084
 693 02a8 14F1FFFF 		.word	-3820
 694 02ac 00000000 		.word	IRQ_Test
 695 02b0 14F2FFFF 		.word	-3564
 696 02b4 10F0FFFF 		.word	-4080
 697 02b8 044000E0 		.word	-536854524
 698 02bc 0C4000E0 		.word	-536854516
 699 02c0 C0270900 		.word	600000
 700 02c4 184000E0 		.word	-536854504
 701 02c8 004000E0 		.word	-536854528
 702 02cc 144000E0 		.word	-536854508
 703 02d0 00000000 		.word	temp
 704 02d4 284002E0 		.word	-536723416
 705 02d8 00000000 		.word	.LC6
 706 02dc 06000000 		.word	.LC8
ARM GAS  C:\Users\embedded\AppData\Local\Temp\ccbK8Ck6.s 			page 18


 707 02e0 244002E0 		.word	-536723420
 708 02e4 204002E0 		.word	-536723424
 709 02e8 13000000 		.word	.LC12
 710 02ec 08000000 		.word	.LC10
 711 02f0 15000000 		.word	.LC14
 712 02f4 17000000 		.word	.LC16
 713 02f8 22000000 		.word	.LC18
 714 02fc 2C000000 		.word	.LC20
 715 0300 008002E0 		.word	-536707072
 716 0304 2E000000 		.word	.LC22
 717              		.cfi_endproc
 718              	.LFE3:
 719              		.size	main, .-main
 720              		.comm	temp,2,2
 721              		.section	.rodata
 722              		.align	2
 723              		.set	.LANCHOR1,. + 0
 724              		.type	stepmotorSteps.4419, %object
 725              		.size	stepmotorSteps.4419, 16
 726              	stepmotorSteps.4419:
 727 0000 00102000 		.word	2101248
 728 0004 00002000 		.word	2097152
 729 0008 00000000 		.word	0
 730 000c 00100000 		.word	4096
 731              		.section	.rodata.str1.1,"aMS",%progbits,1
 732              	.LC6:
 733 0000 54696D65 		.ascii	"Time:\000"
 733      3A00
 734              	.LC8:
 735 0006 3A00     		.ascii	":\000"
 736              	.LC10:
 737 0008 54656D70 		.ascii	"Temp OUT: \000"
 737      204F5554 
 737      3A2000
 738              	.LC12:
 739 0013 2E00     		.ascii	".\000"
 740              	.LC14:
 741 0015 4300     		.ascii	"C\000"
 742              	.LC16:
 743 0017 54656D70 		.ascii	"Temp IN:  \000"
 743      20494E3A 
 743      202000
 744              	.LC18:
 745 0022 48756D69 		.ascii	"Humidity:\000"
 745      64697479 
 745      3A00
 746              	.LC20:
 747 002c 2500     		.ascii	"%\000"
 748              	.LC22:
 749 002e 54656D70 		.ascii	"Temp\000"
 749      00
 750              		.bss
 751              		.set	.LANCHOR0,. + 0
 752              		.type	stepmotorIndex.4420, %object
 753              		.size	stepmotorIndex.4420, 1
 754              	stepmotorIndex.4420:
 755 0000 00       		.space	1
ARM GAS  C:\Users\embedded\AppData\Local\Temp\ccbK8Ck6.s 			page 19


 756              		.text
 757              	.Letext0:
 758              		.file 2 "general.h"
 759              		.file 3 "delays.h"
 760              		.file 4 "lcd.h"
 761              		.file 5 "DHT11.h"
 762              		.file 6 "i2c.h"
 763              		.file 7 "eeprom.h"
 764              		.file 8 "irq/irq_handler.h"