ARM GAS  C:\Users\embedded\AppData\Local\Temp\ccD0wwqi.s 			page 1


   1              		.syntax unified
   2              		.cpu arm7tdmi
   3              		.fpu softvfp
   4              		.eabi_attribute 20, 1
   5              		.eabi_attribute 21, 1
   6              		.eabi_attribute 23, 3
   7              		.eabi_attribute 24, 1
   8              		.eabi_attribute 25, 1
   9              		.eabi_attribute 26, 1
  10              		.eabi_attribute 30, 4
  11              		.eabi_attribute 34, 0
  12              		.eabi_attribute 18, 4
  13              		.thumb
  14              		.syntax unified
  15              		.file	"UART_lib.c"
  16              		.text
  17              	.Ltext0:
  18              		.cfi_sections	.debug_frame
  19              		.align	1
  20              		.global	UART1_Init
  21              		.code	16
  22              		.thumb_func
  23              		.type	UART1_Init, %function
  24              	UART1_Init:
  25              	.LFB0:
  26              		.file 1 "UART_lib.c"
   1:UART_lib.c    **** /*
   2:UART_lib.c    **** Author : Team Silicon TechnoLabs
   3:UART_lib.c    **** Data : 18/10/2015
   4:UART_lib.c    **** Email : harshborad@gmail.com
   5:UART_lib.c    **** Web : www.silicontechnolabs.in
   6:UART_lib.c    **** */
   7:UART_lib.c    **** 
   8:UART_lib.c    **** #include<lpc2xxx.h>
   9:UART_lib.c    **** #include "UART_lib.h"
  10:UART_lib.c    **** 
  11:UART_lib.c    **** 
  12:UART_lib.c    **** void UART1_Init(void)
  13:UART_lib.c    **** {
  27              		.loc 1 13 0
  28              		.cfi_startproc
  29              		@ Function supports interworking.
  30              		@ args = 0, pretend = 0, frame = 0
  31              		@ frame_needed = 0, uses_anonymous_args = 0
  32              		@ link register save eliminated.
  14:UART_lib.c    ****     PINSEL0|=0x50000;
  33              		.loc 1 14 0
  34 0000 A021     		movs	r1, #160
  35 0002 084A     		ldr	r2, .L2
  36 0004 1368     		ldr	r3, [r2]
  37 0006 C902     		lsls	r1, r1, #11
  38 0008 0B43     		orrs	r3, r1
  39 000a 1360     		str	r3, [r2]
  15:UART_lib.c    **** 	U1LCR=0x83;
  40              		.loc 1 15 0
  41 000c 8322     		movs	r2, #131
  16:UART_lib.c    **** 	U1DLL=0x61;
ARM GAS  C:\Users\embedded\AppData\Local\Temp\ccD0wwqi.s 			page 2


  42              		.loc 1 16 0
  43 000e 6121     		movs	r1, #97
  15:UART_lib.c    **** 	U1LCR=0x83;
  44              		.loc 1 15 0
  45 0010 054B     		ldr	r3, .L2+4
  46 0012 1A60     		str	r2, [r3]
  47              		.loc 1 16 0
  48 0014 054A     		ldr	r2, .L2+8
  49 0016 1160     		str	r1, [r2]
  17:UART_lib.c    **** 	U1DLM=0x00;
  50              		.loc 1 17 0
  51 0018 0021     		movs	r1, #0
  52 001a 054A     		ldr	r2, .L2+12
  53 001c 1160     		str	r1, [r2]
  18:UART_lib.c    **** 	U1LCR=0x03;
  54              		.loc 1 18 0
  55 001e 0322     		movs	r2, #3
  19:UART_lib.c    **** }
  56              		.loc 1 19 0
  57              		@ sp needed
  18:UART_lib.c    **** 	U1LCR=0x03;
  58              		.loc 1 18 0
  59 0020 1A60     		str	r2, [r3]
  60              		.loc 1 19 0
  61 0022 7047     		bx	lr
  62              	.L3:
  63              		.align	2
  64              	.L2:
  65 0024 00C002E0 		.word	-536690688
  66 0028 0C0001E0 		.word	-536805364
  67 002c 000001E0 		.word	-536805376
  68 0030 040001E0 		.word	-536805372
  69              		.cfi_endproc
  70              	.LFE0:
  71              		.size	UART1_Init, .-UART1_Init
  72              		.align	1
  73              		.global	UART1_TX
  74              		.code	16
  75              		.thumb_func
  76              		.type	UART1_TX, %function
  77              	UART1_TX:
  78              	.LFB1:
  20:UART_lib.c    **** void UART1_TX(char data)
  21:UART_lib.c    **** {
  79              		.loc 1 21 0
  80              		.cfi_startproc
  81              		@ Function supports interworking.
  82              		@ args = 0, pretend = 0, frame = 0
  83              		@ frame_needed = 0, uses_anonymous_args = 0
  84              		@ link register save eliminated.
  85              	.LVL0:
  22:UART_lib.c    **** 	while(!(U1LSR&0x20));
  86              		.loc 1 22 0
  87 0034 2023     		movs	r3, #32
  88 0036 0349     		ldr	r1, .L9
  89              	.L5:
  90              		.loc 1 22 0 is_stmt 0 discriminator 1
ARM GAS  C:\Users\embedded\AppData\Local\Temp\ccD0wwqi.s 			page 3


  91 0038 0A68     		ldr	r2, [r1]
  92 003a 1A42     		tst	r2, r3
  93 003c FCD0     		beq	.L5
  23:UART_lib.c    ****     U1THR=data;
  94              		.loc 1 23 0 is_stmt 1
  95 003e 024B     		ldr	r3, .L9+4
  24:UART_lib.c    **** }
  96              		.loc 1 24 0
  97              		@ sp needed
  23:UART_lib.c    ****     U1THR=data;
  98              		.loc 1 23 0
  99 0040 1860     		str	r0, [r3]
 100              		.loc 1 24 0
 101 0042 7047     		bx	lr
 102              	.L10:
 103              		.align	2
 104              	.L9:
 105 0044 140001E0 		.word	-536805356
 106 0048 000001E0 		.word	-536805376
 107              		.cfi_endproc
 108              	.LFE1:
 109              		.size	UART1_TX, .-UART1_TX
 110              		.align	1
 111              		.global	UART1_RX
 112              		.code	16
 113              		.thumb_func
 114              		.type	UART1_RX, %function
 115              	UART1_RX:
 116              	.LFB2:
  25:UART_lib.c    **** char UART1_RX(void)
  26:UART_lib.c    **** {
 117              		.loc 1 26 0
 118              		.cfi_startproc
 119              		@ Function supports interworking.
 120              		@ args = 0, pretend = 0, frame = 0
 121              		@ frame_needed = 0, uses_anonymous_args = 0
 122              		@ link register save eliminated.
  27:UART_lib.c    ****     char p;
  28:UART_lib.c    **** 	while(!(U1LSR&0x01));
 123              		.loc 1 28 0
 124 004c 0123     		movs	r3, #1
 125 004e 0449     		ldr	r1, .L15
 126              	.L12:
 127              		.loc 1 28 0 is_stmt 0 discriminator 1
 128 0050 0A68     		ldr	r2, [r1]
 129 0052 1A42     		tst	r2, r3
 130 0054 FCD0     		beq	.L12
  29:UART_lib.c    **** 	p=U1RBR;
 131              		.loc 1 29 0 is_stmt 1
 132 0056 034B     		ldr	r3, .L15+4
 133 0058 1868     		ldr	r0, [r3]
 134              	.LVL1:
  30:UART_lib.c    **** 	return p;
 135              		.loc 1 30 0
 136 005a 0006     		lsls	r0, r0, #24
 137              	.LVL2:
 138 005c 000E     		lsrs	r0, r0, #24
ARM GAS  C:\Users\embedded\AppData\Local\Temp\ccD0wwqi.s 			page 4


  31:UART_lib.c    **** }
 139              		.loc 1 31 0
 140              		@ sp needed
 141 005e 7047     		bx	lr
 142              	.L16:
 143              		.align	2
 144              	.L15:
 145 0060 140001E0 		.word	-536805356
 146 0064 000001E0 		.word	-536805376
 147              		.cfi_endproc
 148              	.LFE2:
 149              		.size	UART1_RX, .-UART1_RX
 150              		.align	1
 151              		.global	UART1_String
 152              		.code	16
 153              		.thumb_func
 154              		.type	UART1_String, %function
 155              	UART1_String:
 156              	.LFB3:
  32:UART_lib.c    **** void UART1_String(char String[])
  33:UART_lib.c    **** {
 157              		.loc 1 33 0
 158              		.cfi_startproc
 159              		@ Function supports interworking.
 160              		@ args = 0, pretend = 0, frame = 0
 161              		@ frame_needed = 0, uses_anonymous_args = 0
 162              	.LVL3:
 163 0068 70B5     		push	{r4, r5, r6, lr}
 164              	.LCFI0:
 165              		.cfi_def_cfa_offset 16
 166              		.cfi_offset 4, -16
 167              		.cfi_offset 5, -12
 168              		.cfi_offset 6, -8
 169              		.cfi_offset 14, -4
 170              		.loc 1 33 0
 171 006a 0500     		movs	r5, r0
  34:UART_lib.c    ****     unsigned char i;
  35:UART_lib.c    **** 	for(i=0;String[i]!='\0';i++)
 172              		.loc 1 35 0
 173 006c 0024     		movs	r4, #0
 174              	.LVL4:
 175              	.L18:
 176              		.loc 1 35 0 is_stmt 0 discriminator 1
 177 006e 285D     		ldrb	r0, [r5, r4]
 178 0070 0028     		cmp	r0, #0
 179 0072 05D0     		beq	.L20
 180              		.loc 1 35 0 discriminator 3
 181 0074 0134     		adds	r4, r4, #1
 182              	.LVL5:
 183 0076 2406     		lsls	r4, r4, #24
  36:UART_lib.c    **** 	{
  37:UART_lib.c    **** 		UART1_TX(String[i]);
 184              		.loc 1 37 0 is_stmt 1 discriminator 3
 185 0078 FFF7FEFF 		bl	UART1_TX
 186              	.LVL6:
  35:UART_lib.c    **** 	{
 187              		.loc 1 35 0 discriminator 3
ARM GAS  C:\Users\embedded\AppData\Local\Temp\ccD0wwqi.s 			page 5


 188 007c 240E     		lsrs	r4, r4, #24
 189              	.LVL7:
 190 007e F6E7     		b	.L18
 191              	.L20:
  38:UART_lib.c    **** 	}
  39:UART_lib.c    **** }
 192              		.loc 1 39 0
 193              		@ sp needed
 194              	.LVL8:
 195              	.LVL9:
 196 0080 70BC     		pop	{r4, r5, r6}
 197 0082 01BC     		pop	{r0}
 198 0084 0047     		bx	r0
 199              		.cfi_endproc
 200              	.LFE3:
 201              		.size	UART1_String, .-UART1_String
 202              		.align	1
 203              		.global	UART1_Char_Response
 204              		.code	16
 205              		.thumb_func
 206              		.type	UART1_Char_Response, %function
 207              	UART1_Char_Response:
 208              	.LFB4:
  40:UART_lib.c    **** void UART1_Char_Response(char data)
  41:UART_lib.c    **** {
 209              		.loc 1 41 0
 210              		.cfi_startproc
 211              		@ Function supports interworking.
 212              		@ args = 0, pretend = 0, frame = 0
 213              		@ frame_needed = 0, uses_anonymous_args = 0
 214              	.LVL10:
 215 0086 10B5     		push	{r4, lr}
 216              	.LCFI1:
 217              		.cfi_def_cfa_offset 8
 218              		.cfi_offset 4, -8
 219              		.cfi_offset 14, -4
 220 0088 0400     		movs	r4, r0
 221              	.LVL11:
 222              	.L23:
  42:UART_lib.c    **** 	char Received_char;
  43:UART_lib.c    **** 	Received_char = UART1_RX();
  44:UART_lib.c    **** 	while(Received_char != data)
  45:UART_lib.c    **** 	{
  46:UART_lib.c    **** 		Received_char = UART1_RX();
 223              		.loc 1 46 0
 224 008a FFF7FEFF 		bl	UART1_RX
 225              	.LVL12:
  44:UART_lib.c    **** 	{
 226              		.loc 1 44 0
 227 008e A042     		cmp	r0, r4
 228 0090 FBD1     		bne	.L23
  47:UART_lib.c    **** 	}
  48:UART_lib.c    **** }
 229              		.loc 1 48 0
 230              		@ sp needed
 231 0092 10BC     		pop	{r4}
 232 0094 01BC     		pop	{r0}
ARM GAS  C:\Users\embedded\AppData\Local\Temp\ccD0wwqi.s 			page 6


 233 0096 0047     		bx	r0
 234              		.cfi_endproc
 235              	.LFE4:
 236              		.size	UART1_Char_Response, .-UART1_Char_Response
 237              		.align	1
 238              		.global	UART0_Init
 239              		.code	16
 240              		.thumb_func
 241              		.type	UART0_Init, %function
 242              	UART0_Init:
 243              	.LFB5:
  49:UART_lib.c    **** 
  50:UART_lib.c    **** 
  51:UART_lib.c    **** 
  52:UART_lib.c    **** void UART0_Init(void)
  53:UART_lib.c    **** {
 244              		.loc 1 53 0
 245              		.cfi_startproc
 246              		@ Function supports interworking.
 247              		@ args = 0, pretend = 0, frame = 0
 248              		@ frame_needed = 0, uses_anonymous_args = 0
 249              		@ link register save eliminated.
  54:UART_lib.c    ****     PINSEL0|=0x5;
 250              		.loc 1 54 0
 251 0098 0521     		movs	r1, #5
 252 009a 084A     		ldr	r2, .L25
 253 009c 1368     		ldr	r3, [r2]
 254 009e 0B43     		orrs	r3, r1
 255 00a0 1360     		str	r3, [r2]
  55:UART_lib.c    **** 	U0LCR=0x83;
 256              		.loc 1 55 0
 257 00a2 8322     		movs	r2, #131
 258 00a4 064B     		ldr	r3, .L25+4
 259 00a6 1A60     		str	r2, [r3]
  56:UART_lib.c    **** 	U0DLL=0x61;
 260              		.loc 1 56 0
 261 00a8 064A     		ldr	r2, .L25+8
 262 00aa 5C31     		adds	r1, r1, #92
 263 00ac 1160     		str	r1, [r2]
  57:UART_lib.c    **** 	U0DLM=0x00;
 264              		.loc 1 57 0
 265 00ae 0021     		movs	r1, #0
 266 00b0 054A     		ldr	r2, .L25+12
 267 00b2 1160     		str	r1, [r2]
  58:UART_lib.c    **** 	U0LCR=0x03;
 268              		.loc 1 58 0
 269 00b4 0322     		movs	r2, #3
  59:UART_lib.c    **** }
 270              		.loc 1 59 0
 271              		@ sp needed
  58:UART_lib.c    **** 	U0LCR=0x03;
 272              		.loc 1 58 0
 273 00b6 1A60     		str	r2, [r3]
 274              		.loc 1 59 0
 275 00b8 7047     		bx	lr
 276              	.L26:
 277 00ba C046     		.align	2
ARM GAS  C:\Users\embedded\AppData\Local\Temp\ccD0wwqi.s 			page 7


 278              	.L25:
 279 00bc 00C002E0 		.word	-536690688
 280 00c0 0CC000E0 		.word	-536821748
 281 00c4 00C000E0 		.word	-536821760
 282 00c8 04C000E0 		.word	-536821756
 283              		.cfi_endproc
 284              	.LFE5:
 285              		.size	UART0_Init, .-UART0_Init
 286              		.align	1
 287              		.global	UART0_TX
 288              		.code	16
 289              		.thumb_func
 290              		.type	UART0_TX, %function
 291              	UART0_TX:
 292              	.LFB6:
  60:UART_lib.c    **** void UART0_TX(char data)
  61:UART_lib.c    **** {
 293              		.loc 1 61 0
 294              		.cfi_startproc
 295              		@ Function supports interworking.
 296              		@ args = 0, pretend = 0, frame = 0
 297              		@ frame_needed = 0, uses_anonymous_args = 0
 298              		@ link register save eliminated.
 299              	.LVL13:
  62:UART_lib.c    **** 	while(!(U0LSR&0x20));
 300              		.loc 1 62 0
 301 00cc 2023     		movs	r3, #32
 302 00ce 0349     		ldr	r1, .L31
 303              	.L28:
 304              		.loc 1 62 0 is_stmt 0 discriminator 1
 305 00d0 0A68     		ldr	r2, [r1]
 306 00d2 1A42     		tst	r2, r3
 307 00d4 FCD0     		beq	.L28
  63:UART_lib.c    ****     U0THR=data;
 308              		.loc 1 63 0 is_stmt 1
 309 00d6 024B     		ldr	r3, .L31+4
  64:UART_lib.c    **** }
 310              		.loc 1 64 0
 311              		@ sp needed
  63:UART_lib.c    ****     U0THR=data;
 312              		.loc 1 63 0
 313 00d8 1860     		str	r0, [r3]
 314              		.loc 1 64 0
 315 00da 7047     		bx	lr
 316              	.L32:
 317              		.align	2
 318              	.L31:
 319 00dc 14C000E0 		.word	-536821740
 320 00e0 00C000E0 		.word	-536821760
 321              		.cfi_endproc
 322              	.LFE6:
 323              		.size	UART0_TX, .-UART0_TX
 324              		.align	1
 325              		.global	UART0_RX
 326              		.code	16
 327              		.thumb_func
 328              		.type	UART0_RX, %function
ARM GAS  C:\Users\embedded\AppData\Local\Temp\ccD0wwqi.s 			page 8


 329              	UART0_RX:
 330              	.LFB7:
  65:UART_lib.c    **** char UART0_RX(void)
  66:UART_lib.c    **** {
 331              		.loc 1 66 0
 332              		.cfi_startproc
 333              		@ Function supports interworking.
 334              		@ args = 0, pretend = 0, frame = 0
 335              		@ frame_needed = 0, uses_anonymous_args = 0
 336              		@ link register save eliminated.
  67:UART_lib.c    ****     char p;
  68:UART_lib.c    **** 	while(!(U0LSR&0x01));
 337              		.loc 1 68 0
 338 00e4 0123     		movs	r3, #1
 339 00e6 0449     		ldr	r1, .L37
 340              	.L34:
 341              		.loc 1 68 0 is_stmt 0 discriminator 1
 342 00e8 0A68     		ldr	r2, [r1]
 343 00ea 1A42     		tst	r2, r3
 344 00ec FCD0     		beq	.L34
  69:UART_lib.c    **** 	p=U0RBR;
 345              		.loc 1 69 0 is_stmt 1
 346 00ee 034B     		ldr	r3, .L37+4
 347 00f0 1868     		ldr	r0, [r3]
 348              	.LVL14:
  70:UART_lib.c    **** 	return p;
 349              		.loc 1 70 0
 350 00f2 0006     		lsls	r0, r0, #24
 351              	.LVL15:
 352 00f4 000E     		lsrs	r0, r0, #24
  71:UART_lib.c    **** }
 353              		.loc 1 71 0
 354              		@ sp needed
 355 00f6 7047     		bx	lr
 356              	.L38:
 357              		.align	2
 358              	.L37:
 359 00f8 14C000E0 		.word	-536821740
 360 00fc 00C000E0 		.word	-536821760
 361              		.cfi_endproc
 362              	.LFE7:
 363              		.size	UART0_RX, .-UART0_RX
 364              		.align	1
 365              		.global	UART0_String
 366              		.code	16
 367              		.thumb_func
 368              		.type	UART0_String, %function
 369              	UART0_String:
 370              	.LFB8:
  72:UART_lib.c    **** void UART0_String(char String[])
  73:UART_lib.c    **** {
 371              		.loc 1 73 0
 372              		.cfi_startproc
 373              		@ Function supports interworking.
 374              		@ args = 0, pretend = 0, frame = 0
 375              		@ frame_needed = 0, uses_anonymous_args = 0
 376              	.LVL16:
ARM GAS  C:\Users\embedded\AppData\Local\Temp\ccD0wwqi.s 			page 9


 377 0100 70B5     		push	{r4, r5, r6, lr}
 378              	.LCFI2:
 379              		.cfi_def_cfa_offset 16
 380              		.cfi_offset 4, -16
 381              		.cfi_offset 5, -12
 382              		.cfi_offset 6, -8
 383              		.cfi_offset 14, -4
 384              		.loc 1 73 0
 385 0102 0500     		movs	r5, r0
  74:UART_lib.c    ****     unsigned char i;
  75:UART_lib.c    **** 	for(i=0;String[i]!='\0';i++)
 386              		.loc 1 75 0
 387 0104 0024     		movs	r4, #0
 388              	.LVL17:
 389              	.L40:
 390              		.loc 1 75 0 is_stmt 0 discriminator 1
 391 0106 285D     		ldrb	r0, [r5, r4]
 392 0108 0028     		cmp	r0, #0
 393 010a 05D0     		beq	.L42
 394              		.loc 1 75 0 discriminator 3
 395 010c 0134     		adds	r4, r4, #1
 396              	.LVL18:
 397 010e 2406     		lsls	r4, r4, #24
  76:UART_lib.c    **** 	{
  77:UART_lib.c    **** 		UART0_TX(String[i]);
 398              		.loc 1 77 0 is_stmt 1 discriminator 3
 399 0110 FFF7FEFF 		bl	UART0_TX
 400              	.LVL19:
  75:UART_lib.c    **** 	{
 401              		.loc 1 75 0 discriminator 3
 402 0114 240E     		lsrs	r4, r4, #24
 403              	.LVL20:
 404 0116 F6E7     		b	.L40
 405              	.L42:
  78:UART_lib.c    **** 	}
  79:UART_lib.c    **** }
 406              		.loc 1 79 0
 407              		@ sp needed
 408              	.LVL21:
 409              	.LVL22:
 410 0118 70BC     		pop	{r4, r5, r6}
 411 011a 01BC     		pop	{r0}
 412 011c 0047     		bx	r0
 413              		.cfi_endproc
 414              	.LFE8:
 415              		.size	UART0_String, .-UART0_String
 416              		.align	1
 417              		.global	UART0_Char_Response
 418              		.code	16
 419              		.thumb_func
 420              		.type	UART0_Char_Response, %function
 421              	UART0_Char_Response:
 422              	.LFB9:
  80:UART_lib.c    **** void UART0_Char_Response(char data)
  81:UART_lib.c    **** {
 423              		.loc 1 81 0
 424              		.cfi_startproc
ARM GAS  C:\Users\embedded\AppData\Local\Temp\ccD0wwqi.s 			page 10


 425              		@ Function supports interworking.
 426              		@ args = 0, pretend = 0, frame = 0
 427              		@ frame_needed = 0, uses_anonymous_args = 0
 428              	.LVL23:
 429 011e 10B5     		push	{r4, lr}
 430              	.LCFI3:
 431              		.cfi_def_cfa_offset 8
 432              		.cfi_offset 4, -8
 433              		.cfi_offset 14, -4
 434 0120 0400     		movs	r4, r0
 435              	.LVL24:
 436              	.L45:
  82:UART_lib.c    **** 	char Received_char;
  83:UART_lib.c    **** 	Received_char = UART0_RX();
  84:UART_lib.c    **** 	while(Received_char != data)
  85:UART_lib.c    **** 	{
  86:UART_lib.c    **** 		Received_char = UART0_RX();
 437              		.loc 1 86 0
 438 0122 FFF7FEFF 		bl	UART0_RX
 439              	.LVL25:
  84:UART_lib.c    **** 	{
 440              		.loc 1 84 0
 441 0126 A042     		cmp	r0, r4
 442 0128 FBD1     		bne	.L45
  87:UART_lib.c    **** 	}
  88:UART_lib.c    **** }
 443              		.loc 1 88 0
 444              		@ sp needed
 445 012a 10BC     		pop	{r4}
 446 012c 01BC     		pop	{r0}
 447 012e 0047     		bx	r0
 448              		.cfi_endproc
 449              	.LFE9:
 450              		.size	UART0_Char_Response, .-UART0_Char_Response
 451              		.global	__aeabi_idivmod
 452              		.global	__aeabi_idiv
 453              		.align	1
 454              		.global	TX0_Int
 455              		.code	16
 456              		.thumb_func
 457              		.type	TX0_Int, %function
 458              	TX0_Int:
 459              	.LFB10:
  89:UART_lib.c    **** void TX0_Int(int INT)
  90:UART_lib.c    **** {
 460              		.loc 1 90 0
 461              		.cfi_startproc
 462              		@ Function supports interworking.
 463              		@ args = 0, pretend = 0, frame = 0
 464              		@ frame_needed = 0, uses_anonymous_args = 0
 465              	.LVL26:
  91:UART_lib.c    **** 	//UART0_TX((INT/1000) + 48);
  92:UART_lib.c    **** 	//UART0_TX(((INT%1000)/100) + 48);
  93:UART_lib.c    **** 	UART0_TX(((INT%1000)%100)/10 + 48);
 466              		.loc 1 93 0
 467 0130 FA21     		movs	r1, #250
  90:UART_lib.c    **** 	//UART0_TX((INT/1000) + 48);
ARM GAS  C:\Users\embedded\AppData\Local\Temp\ccD0wwqi.s 			page 11


 468              		.loc 1 90 0
 469 0132 10B5     		push	{r4, lr}
 470              	.LCFI4:
 471              		.cfi_def_cfa_offset 8
 472              		.cfi_offset 4, -8
 473              		.cfi_offset 14, -4
 474              		.loc 1 93 0
 475 0134 8900     		lsls	r1, r1, #2
 476 0136 FFF7FEFF 		bl	__aeabi_idivmod
 477              	.LVL27:
 478 013a 0800     		movs	r0, r1
 479 013c 6421     		movs	r1, #100
 480 013e FFF7FEFF 		bl	__aeabi_idivmod
 481              	.LVL28:
 482 0142 0C00     		movs	r4, r1
 483 0144 0A21     		movs	r1, #10
 484 0146 2000     		movs	r0, r4
 485 0148 FFF7FEFF 		bl	__aeabi_idiv
 486              	.LVL29:
 487 014c 3030     		adds	r0, r0, #48
 488 014e 0006     		lsls	r0, r0, #24
 489 0150 000E     		lsrs	r0, r0, #24
 490 0152 FFF7FEFF 		bl	UART0_TX
 491              	.LVL30:
  94:UART_lib.c    **** 	UART0_TX(((INT%1000)%100)%10 + 48);
 492              		.loc 1 94 0
 493 0156 2000     		movs	r0, r4
 494 0158 0A21     		movs	r1, #10
 495 015a FFF7FEFF 		bl	__aeabi_idivmod
 496              	.LVL31:
 497 015e 3031     		adds	r1, r1, #48
 498 0160 0806     		lsls	r0, r1, #24
 499 0162 000E     		lsrs	r0, r0, #24
 500 0164 FFF7FEFF 		bl	UART0_TX
 501              	.LVL32:
  95:UART_lib.c    **** }
 502              		.loc 1 95 0
 503              		@ sp needed
 504 0168 10BC     		pop	{r4}
 505 016a 01BC     		pop	{r0}
 506 016c 0047     		bx	r0
 507              		.cfi_endproc
 508              	.LFE10:
 509              		.size	TX0_Int, .-TX0_Int
 510              	.Letext0:
 511 016e C046     		.section	.debug_info,"",%progbits
 512              	.Ldebug_info0:
 513 0000 47020000 		.4byte	0x247
 514 0004 0200     		.2byte	0x2
 515 0006 00000000 		.4byte	.Ldebug_abbrev0
 516 000a 04       		.byte	0x4
 517 000b 01       		.uleb128 0x1
 518 000c 8F000000 		.4byte	.LASF16
 519 0010 0C       		.byte	0xc
 520 0011 4F010000 		.4byte	.LASF17
 521 0015 31010000 		.4byte	.LASF18
 522 0019 00000000 		.4byte	.Ltext0
ARM GAS  C:\Users\embedded\AppData\Local\Temp\ccD0wwqi.s 			page 12


 523 001d 6E010000 		.4byte	.Letext0
 524 0021 00000000 		.4byte	.Ldebug_line0
 525 0025 02       		.uleb128 0x2
 526 0026 01       		.byte	0x1
 527 0027 49000000 		.4byte	.LASF8
 528 002b 01       		.byte	0x1
 529 002c 0C       		.byte	0xc
 530 002d 01       		.byte	0x1
 531 002e 00000000 		.4byte	.LFB0
 532 0032 34000000 		.4byte	.LFE0
 533 0036 02       		.byte	0x2
 534 0037 7D       		.byte	0x7d
 535 0038 00       		.sleb128 0
 536 0039 01       		.byte	0x1
 537 003a 03       		.uleb128 0x3
 538 003b 01       		.byte	0x1
 539 003c 2C000000 		.4byte	.LASF0
 540 0040 01       		.byte	0x1
 541 0041 14       		.byte	0x14
 542 0042 01       		.byte	0x1
 543 0043 34000000 		.4byte	.LFB1
 544 0047 4C000000 		.4byte	.LFE1
 545 004b 02       		.byte	0x2
 546 004c 7D       		.byte	0x7d
 547 004d 00       		.sleb128 0
 548 004e 01       		.byte	0x1
 549 004f 61000000 		.4byte	0x61
 550 0053 04       		.uleb128 0x4
 551 0054 8A000000 		.4byte	.LASF2
 552 0058 01       		.byte	0x1
 553 0059 14       		.byte	0x14
 554 005a 61000000 		.4byte	0x61
 555 005e 01       		.byte	0x1
 556 005f 50       		.byte	0x50
 557 0060 00       		.byte	0
 558 0061 05       		.uleb128 0x5
 559 0062 01       		.byte	0x1
 560 0063 08       		.byte	0x8
 561 0064 23010000 		.4byte	.LASF4
 562 0068 06       		.uleb128 0x6
 563 0069 01       		.byte	0x1
 564 006a 54000000 		.4byte	.LASF11
 565 006e 01       		.byte	0x1
 566 006f 19       		.byte	0x19
 567 0070 01       		.byte	0x1
 568 0071 61000000 		.4byte	0x61
 569 0075 4C000000 		.4byte	.LFB2
 570 0079 68000000 		.4byte	.LFE2
 571 007d 02       		.byte	0x2
 572 007e 7D       		.byte	0x7d
 573 007f 00       		.sleb128 0
 574 0080 01       		.byte	0x1
 575 0081 93000000 		.4byte	0x93
 576 0085 07       		.uleb128 0x7
 577 0086 7000     		.ascii	"p\000"
 578 0088 01       		.byte	0x1
 579 0089 1B       		.byte	0x1b
ARM GAS  C:\Users\embedded\AppData\Local\Temp\ccD0wwqi.s 			page 13


 580 008a 61000000 		.4byte	0x61
 581 008e 00000000 		.4byte	.LLST0
 582 0092 00       		.byte	0
 583 0093 08       		.uleb128 0x8
 584 0094 01       		.byte	0x1
 585 0095 00000000 		.4byte	.LASF1
 586 0099 01       		.byte	0x1
 587 009a 20       		.byte	0x20
 588 009b 01       		.byte	0x1
 589 009c 68000000 		.4byte	.LFB3
 590 00a0 86000000 		.4byte	.LFE3
 591 00a4 13000000 		.4byte	.LLST1
 592 00a8 01       		.byte	0x1
 593 00a9 D3000000 		.4byte	0xd3
 594 00ad 09       		.uleb128 0x9
 595 00ae 35000000 		.4byte	.LASF3
 596 00b2 01       		.byte	0x1
 597 00b3 20       		.byte	0x20
 598 00b4 D3000000 		.4byte	0xd3
 599 00b8 33000000 		.4byte	.LLST2
 600 00bc 07       		.uleb128 0x7
 601 00bd 6900     		.ascii	"i\000"
 602 00bf 01       		.byte	0x1
 603 00c0 22       		.byte	0x22
 604 00c1 D9000000 		.4byte	0xd9
 605 00c5 5F000000 		.4byte	.LLST3
 606 00c9 0A       		.uleb128 0xa
 607 00ca 7C000000 		.4byte	.LVL6
 608 00ce 3A000000 		.4byte	0x3a
 609 00d2 00       		.byte	0
 610 00d3 0B       		.uleb128 0xb
 611 00d4 04       		.byte	0x4
 612 00d5 61000000 		.4byte	0x61
 613 00d9 05       		.uleb128 0x5
 614 00da 01       		.byte	0x1
 615 00db 08       		.byte	0x8
 616 00dc 68000000 		.4byte	.LASF5
 617 00e0 08       		.uleb128 0x8
 618 00e1 01       		.byte	0x1
 619 00e2 0F010000 		.4byte	.LASF6
 620 00e6 01       		.byte	0x1
 621 00e7 28       		.byte	0x28
 622 00e8 01       		.byte	0x1
 623 00e9 86000000 		.4byte	.LFB4
 624 00ed 98000000 		.4byte	.LFE4
 625 00f1 89000000 		.4byte	.LLST4
 626 00f5 01       		.byte	0x1
 627 00f6 20010000 		.4byte	0x120
 628 00fa 09       		.uleb128 0x9
 629 00fb 8A000000 		.4byte	.LASF2
 630 00ff 01       		.byte	0x1
 631 0100 28       		.byte	0x28
 632 0101 61000000 		.4byte	0x61
 633 0105 A9000000 		.4byte	.LLST5
 634 0109 0C       		.uleb128 0xc
 635 010a 15000000 		.4byte	.LASF7
 636 010e 01       		.byte	0x1
ARM GAS  C:\Users\embedded\AppData\Local\Temp\ccD0wwqi.s 			page 14


 637 010f 2A       		.byte	0x2a
 638 0110 61000000 		.4byte	0x61
 639 0114 01       		.byte	0x1
 640 0115 50       		.byte	0x50
 641 0116 0A       		.uleb128 0xa
 642 0117 8E000000 		.4byte	.LVL12
 643 011b 68000000 		.4byte	0x68
 644 011f 00       		.byte	0
 645 0120 02       		.uleb128 0x2
 646 0121 01       		.byte	0x1
 647 0122 5D000000 		.4byte	.LASF9
 648 0126 01       		.byte	0x1
 649 0127 34       		.byte	0x34
 650 0128 01       		.byte	0x1
 651 0129 98000000 		.4byte	.LFB5
 652 012d CC000000 		.4byte	.LFE5
 653 0131 02       		.byte	0x2
 654 0132 7D       		.byte	0x7d
 655 0133 00       		.sleb128 0
 656 0134 01       		.byte	0x1
 657 0135 03       		.uleb128 0x3
 658 0136 01       		.byte	0x1
 659 0137 23000000 		.4byte	.LASF10
 660 013b 01       		.byte	0x1
 661 013c 3C       		.byte	0x3c
 662 013d 01       		.byte	0x1
 663 013e CC000000 		.4byte	.LFB6
 664 0142 E4000000 		.4byte	.LFE6
 665 0146 02       		.byte	0x2
 666 0147 7D       		.byte	0x7d
 667 0148 00       		.sleb128 0
 668 0149 01       		.byte	0x1
 669 014a 5C010000 		.4byte	0x15c
 670 014e 04       		.uleb128 0x4
 671 014f 8A000000 		.4byte	.LASF2
 672 0153 01       		.byte	0x1
 673 0154 3C       		.byte	0x3c
 674 0155 61000000 		.4byte	0x61
 675 0159 01       		.byte	0x1
 676 015a 50       		.byte	0x50
 677 015b 00       		.byte	0
 678 015c 06       		.uleb128 0x6
 679 015d 01       		.byte	0x1
 680 015e 28010000 		.4byte	.LASF12
 681 0162 01       		.byte	0x1
 682 0163 41       		.byte	0x41
 683 0164 01       		.byte	0x1
 684 0165 61000000 		.4byte	0x61
 685 0169 E4000000 		.4byte	.LFB7
 686 016d 00010000 		.4byte	.LFE7
 687 0171 02       		.byte	0x2
 688 0172 7D       		.byte	0x7d
 689 0173 00       		.sleb128 0
 690 0174 01       		.byte	0x1
 691 0175 87010000 		.4byte	0x187
 692 0179 07       		.uleb128 0x7
 693 017a 7000     		.ascii	"p\000"
ARM GAS  C:\Users\embedded\AppData\Local\Temp\ccD0wwqi.s 			page 15


 694 017c 01       		.byte	0x1
 695 017d 43       		.byte	0x43
 696 017e 61000000 		.4byte	0x61
 697 0182 CA000000 		.4byte	.LLST6
 698 0186 00       		.byte	0
 699 0187 08       		.uleb128 0x8
 700 0188 01       		.byte	0x1
 701 0189 3C000000 		.4byte	.LASF13
 702 018d 01       		.byte	0x1
 703 018e 48       		.byte	0x48
 704 018f 01       		.byte	0x1
 705 0190 00010000 		.4byte	.LFB8
 706 0194 1E010000 		.4byte	.LFE8
 707 0198 DD000000 		.4byte	.LLST7
 708 019c 01       		.byte	0x1
 709 019d C7010000 		.4byte	0x1c7
 710 01a1 09       		.uleb128 0x9
 711 01a2 35000000 		.4byte	.LASF3
 712 01a6 01       		.byte	0x1
 713 01a7 48       		.byte	0x48
 714 01a8 D3000000 		.4byte	0xd3
 715 01ac FD000000 		.4byte	.LLST8
 716 01b0 07       		.uleb128 0x7
 717 01b1 6900     		.ascii	"i\000"
 718 01b3 01       		.byte	0x1
 719 01b4 4A       		.byte	0x4a
 720 01b5 D9000000 		.4byte	0xd9
 721 01b9 29010000 		.4byte	.LLST9
 722 01bd 0A       		.uleb128 0xa
 723 01be 14010000 		.4byte	.LVL19
 724 01c2 35010000 		.4byte	0x135
 725 01c6 00       		.byte	0
 726 01c7 08       		.uleb128 0x8
 727 01c8 01       		.byte	0x1
 728 01c9 76000000 		.4byte	.LASF14
 729 01cd 01       		.byte	0x1
 730 01ce 50       		.byte	0x50
 731 01cf 01       		.byte	0x1
 732 01d0 1E010000 		.4byte	.LFB9
 733 01d4 30010000 		.4byte	.LFE9
 734 01d8 53010000 		.4byte	.LLST10
 735 01dc 01       		.byte	0x1
 736 01dd 07020000 		.4byte	0x207
 737 01e1 09       		.uleb128 0x9
 738 01e2 8A000000 		.4byte	.LASF2
 739 01e6 01       		.byte	0x1
 740 01e7 50       		.byte	0x50
 741 01e8 61000000 		.4byte	0x61
 742 01ec 73010000 		.4byte	.LLST11
 743 01f0 0C       		.uleb128 0xc
 744 01f1 15000000 		.4byte	.LASF7
 745 01f5 01       		.byte	0x1
 746 01f6 52       		.byte	0x52
 747 01f7 61000000 		.4byte	0x61
 748 01fb 01       		.byte	0x1
 749 01fc 50       		.byte	0x50
 750 01fd 0A       		.uleb128 0xa
ARM GAS  C:\Users\embedded\AppData\Local\Temp\ccD0wwqi.s 			page 16


 751 01fe 26010000 		.4byte	.LVL25
 752 0202 5C010000 		.4byte	0x15c
 753 0206 00       		.byte	0
 754 0207 0D       		.uleb128 0xd
 755 0208 01       		.byte	0x1
 756 0209 0D000000 		.4byte	.LASF15
 757 020d 01       		.byte	0x1
 758 020e 59       		.byte	0x59
 759 020f 01       		.byte	0x1
 760 0210 30010000 		.4byte	.LFB10
 761 0214 6E010000 		.4byte	.LFE10
 762 0218 94010000 		.4byte	.LLST12
 763 021c 01       		.byte	0x1
 764 021d 43020000 		.4byte	0x243
 765 0221 0E       		.uleb128 0xe
 766 0222 494E5400 		.ascii	"INT\000"
 767 0226 01       		.byte	0x1
 768 0227 59       		.byte	0x59
 769 0228 43020000 		.4byte	0x243
 770 022c B4010000 		.4byte	.LLST13
 771 0230 0A       		.uleb128 0xa
 772 0231 56010000 		.4byte	.LVL30
 773 0235 35010000 		.4byte	0x135
 774 0239 0A       		.uleb128 0xa
 775 023a 68010000 		.4byte	.LVL32
 776 023e 35010000 		.4byte	0x135
 777 0242 00       		.byte	0
 778 0243 0F       		.uleb128 0xf
 779 0244 04       		.byte	0x4
 780 0245 05       		.byte	0x5
 781 0246 696E7400 		.ascii	"int\000"
 782 024a 00       		.byte	0
 783              		.section	.debug_abbrev,"",%progbits
 784              	.Ldebug_abbrev0:
 785 0000 01       		.uleb128 0x1
 786 0001 11       		.uleb128 0x11
 787 0002 01       		.byte	0x1
 788 0003 25       		.uleb128 0x25
 789 0004 0E       		.uleb128 0xe
 790 0005 13       		.uleb128 0x13
 791 0006 0B       		.uleb128 0xb
 792 0007 03       		.uleb128 0x3
 793 0008 0E       		.uleb128 0xe
 794 0009 1B       		.uleb128 0x1b
 795 000a 0E       		.uleb128 0xe
 796 000b 11       		.uleb128 0x11
 797 000c 01       		.uleb128 0x1
 798 000d 12       		.uleb128 0x12
 799 000e 01       		.uleb128 0x1
 800 000f 10       		.uleb128 0x10
 801 0010 06       		.uleb128 0x6
 802 0011 00       		.byte	0
 803 0012 00       		.byte	0
 804 0013 02       		.uleb128 0x2
 805 0014 2E       		.uleb128 0x2e
 806 0015 00       		.byte	0
 807 0016 3F       		.uleb128 0x3f
ARM GAS  C:\Users\embedded\AppData\Local\Temp\ccD0wwqi.s 			page 17


 808 0017 0C       		.uleb128 0xc
 809 0018 03       		.uleb128 0x3
 810 0019 0E       		.uleb128 0xe
 811 001a 3A       		.uleb128 0x3a
 812 001b 0B       		.uleb128 0xb
 813 001c 3B       		.uleb128 0x3b
 814 001d 0B       		.uleb128 0xb
 815 001e 27       		.uleb128 0x27
 816 001f 0C       		.uleb128 0xc
 817 0020 11       		.uleb128 0x11
 818 0021 01       		.uleb128 0x1
 819 0022 12       		.uleb128 0x12
 820 0023 01       		.uleb128 0x1
 821 0024 40       		.uleb128 0x40
 822 0025 0A       		.uleb128 0xa
 823 0026 9742     		.uleb128 0x2117
 824 0028 0C       		.uleb128 0xc
 825 0029 00       		.byte	0
 826 002a 00       		.byte	0
 827 002b 03       		.uleb128 0x3
 828 002c 2E       		.uleb128 0x2e
 829 002d 01       		.byte	0x1
 830 002e 3F       		.uleb128 0x3f
 831 002f 0C       		.uleb128 0xc
 832 0030 03       		.uleb128 0x3
 833 0031 0E       		.uleb128 0xe
 834 0032 3A       		.uleb128 0x3a
 835 0033 0B       		.uleb128 0xb
 836 0034 3B       		.uleb128 0x3b
 837 0035 0B       		.uleb128 0xb
 838 0036 27       		.uleb128 0x27
 839 0037 0C       		.uleb128 0xc
 840 0038 11       		.uleb128 0x11
 841 0039 01       		.uleb128 0x1
 842 003a 12       		.uleb128 0x12
 843 003b 01       		.uleb128 0x1
 844 003c 40       		.uleb128 0x40
 845 003d 0A       		.uleb128 0xa
 846 003e 9742     		.uleb128 0x2117
 847 0040 0C       		.uleb128 0xc
 848 0041 01       		.uleb128 0x1
 849 0042 13       		.uleb128 0x13
 850 0043 00       		.byte	0
 851 0044 00       		.byte	0
 852 0045 04       		.uleb128 0x4
 853 0046 05       		.uleb128 0x5
 854 0047 00       		.byte	0
 855 0048 03       		.uleb128 0x3
 856 0049 0E       		.uleb128 0xe
 857 004a 3A       		.uleb128 0x3a
 858 004b 0B       		.uleb128 0xb
 859 004c 3B       		.uleb128 0x3b
 860 004d 0B       		.uleb128 0xb
 861 004e 49       		.uleb128 0x49
 862 004f 13       		.uleb128 0x13
 863 0050 02       		.uleb128 0x2
 864 0051 0A       		.uleb128 0xa
ARM GAS  C:\Users\embedded\AppData\Local\Temp\ccD0wwqi.s 			page 18


 865 0052 00       		.byte	0
 866 0053 00       		.byte	0
 867 0054 05       		.uleb128 0x5
 868 0055 24       		.uleb128 0x24
 869 0056 00       		.byte	0
 870 0057 0B       		.uleb128 0xb
 871 0058 0B       		.uleb128 0xb
 872 0059 3E       		.uleb128 0x3e
 873 005a 0B       		.uleb128 0xb
 874 005b 03       		.uleb128 0x3
 875 005c 0E       		.uleb128 0xe
 876 005d 00       		.byte	0
 877 005e 00       		.byte	0
 878 005f 06       		.uleb128 0x6
 879 0060 2E       		.uleb128 0x2e
 880 0061 01       		.byte	0x1
 881 0062 3F       		.uleb128 0x3f
 882 0063 0C       		.uleb128 0xc
 883 0064 03       		.uleb128 0x3
 884 0065 0E       		.uleb128 0xe
 885 0066 3A       		.uleb128 0x3a
 886 0067 0B       		.uleb128 0xb
 887 0068 3B       		.uleb128 0x3b
 888 0069 0B       		.uleb128 0xb
 889 006a 27       		.uleb128 0x27
 890 006b 0C       		.uleb128 0xc
 891 006c 49       		.uleb128 0x49
 892 006d 13       		.uleb128 0x13
 893 006e 11       		.uleb128 0x11
 894 006f 01       		.uleb128 0x1
 895 0070 12       		.uleb128 0x12
 896 0071 01       		.uleb128 0x1
 897 0072 40       		.uleb128 0x40
 898 0073 0A       		.uleb128 0xa
 899 0074 9742     		.uleb128 0x2117
 900 0076 0C       		.uleb128 0xc
 901 0077 01       		.uleb128 0x1
 902 0078 13       		.uleb128 0x13
 903 0079 00       		.byte	0
 904 007a 00       		.byte	0
 905 007b 07       		.uleb128 0x7
 906 007c 34       		.uleb128 0x34
 907 007d 00       		.byte	0
 908 007e 03       		.uleb128 0x3
 909 007f 08       		.uleb128 0x8
 910 0080 3A       		.uleb128 0x3a
 911 0081 0B       		.uleb128 0xb
 912 0082 3B       		.uleb128 0x3b
 913 0083 0B       		.uleb128 0xb
 914 0084 49       		.uleb128 0x49
 915 0085 13       		.uleb128 0x13
 916 0086 02       		.uleb128 0x2
 917 0087 06       		.uleb128 0x6
 918 0088 00       		.byte	0
 919 0089 00       		.byte	0
 920 008a 08       		.uleb128 0x8
 921 008b 2E       		.uleb128 0x2e
ARM GAS  C:\Users\embedded\AppData\Local\Temp\ccD0wwqi.s 			page 19


 922 008c 01       		.byte	0x1
 923 008d 3F       		.uleb128 0x3f
 924 008e 0C       		.uleb128 0xc
 925 008f 03       		.uleb128 0x3
 926 0090 0E       		.uleb128 0xe
 927 0091 3A       		.uleb128 0x3a
 928 0092 0B       		.uleb128 0xb
 929 0093 3B       		.uleb128 0x3b
 930 0094 0B       		.uleb128 0xb
 931 0095 27       		.uleb128 0x27
 932 0096 0C       		.uleb128 0xc
 933 0097 11       		.uleb128 0x11
 934 0098 01       		.uleb128 0x1
 935 0099 12       		.uleb128 0x12
 936 009a 01       		.uleb128 0x1
 937 009b 40       		.uleb128 0x40
 938 009c 06       		.uleb128 0x6
 939 009d 9742     		.uleb128 0x2117
 940 009f 0C       		.uleb128 0xc
 941 00a0 01       		.uleb128 0x1
 942 00a1 13       		.uleb128 0x13
 943 00a2 00       		.byte	0
 944 00a3 00       		.byte	0
 945 00a4 09       		.uleb128 0x9
 946 00a5 05       		.uleb128 0x5
 947 00a6 00       		.byte	0
 948 00a7 03       		.uleb128 0x3
 949 00a8 0E       		.uleb128 0xe
 950 00a9 3A       		.uleb128 0x3a
 951 00aa 0B       		.uleb128 0xb
 952 00ab 3B       		.uleb128 0x3b
 953 00ac 0B       		.uleb128 0xb
 954 00ad 49       		.uleb128 0x49
 955 00ae 13       		.uleb128 0x13
 956 00af 02       		.uleb128 0x2
 957 00b0 06       		.uleb128 0x6
 958 00b1 00       		.byte	0
 959 00b2 00       		.byte	0
 960 00b3 0A       		.uleb128 0xa
 961 00b4 898201   		.uleb128 0x4109
 962 00b7 00       		.byte	0
 963 00b8 11       		.uleb128 0x11
 964 00b9 01       		.uleb128 0x1
 965 00ba 31       		.uleb128 0x31
 966 00bb 13       		.uleb128 0x13
 967 00bc 00       		.byte	0
 968 00bd 00       		.byte	0
 969 00be 0B       		.uleb128 0xb
 970 00bf 0F       		.uleb128 0xf
 971 00c0 00       		.byte	0
 972 00c1 0B       		.uleb128 0xb
 973 00c2 0B       		.uleb128 0xb
 974 00c3 49       		.uleb128 0x49
 975 00c4 13       		.uleb128 0x13
 976 00c5 00       		.byte	0
 977 00c6 00       		.byte	0
 978 00c7 0C       		.uleb128 0xc
ARM GAS  C:\Users\embedded\AppData\Local\Temp\ccD0wwqi.s 			page 20


 979 00c8 34       		.uleb128 0x34
 980 00c9 00       		.byte	0
 981 00ca 03       		.uleb128 0x3
 982 00cb 0E       		.uleb128 0xe
 983 00cc 3A       		.uleb128 0x3a
 984 00cd 0B       		.uleb128 0xb
 985 00ce 3B       		.uleb128 0x3b
 986 00cf 0B       		.uleb128 0xb
 987 00d0 49       		.uleb128 0x49
 988 00d1 13       		.uleb128 0x13
 989 00d2 02       		.uleb128 0x2
 990 00d3 0A       		.uleb128 0xa
 991 00d4 00       		.byte	0
 992 00d5 00       		.byte	0
 993 00d6 0D       		.uleb128 0xd
 994 00d7 2E       		.uleb128 0x2e
 995 00d8 01       		.byte	0x1
 996 00d9 3F       		.uleb128 0x3f
 997 00da 0C       		.uleb128 0xc
 998 00db 03       		.uleb128 0x3
 999 00dc 0E       		.uleb128 0xe
 1000 00dd 3A       		.uleb128 0x3a
 1001 00de 0B       		.uleb128 0xb
 1002 00df 3B       		.uleb128 0x3b
 1003 00e0 0B       		.uleb128 0xb
 1004 00e1 27       		.uleb128 0x27
 1005 00e2 0C       		.uleb128 0xc
 1006 00e3 11       		.uleb128 0x11
 1007 00e4 01       		.uleb128 0x1
 1008 00e5 12       		.uleb128 0x12
 1009 00e6 01       		.uleb128 0x1
 1010 00e7 40       		.uleb128 0x40
 1011 00e8 06       		.uleb128 0x6
 1012 00e9 9642     		.uleb128 0x2116
 1013 00eb 0C       		.uleb128 0xc
 1014 00ec 01       		.uleb128 0x1
 1015 00ed 13       		.uleb128 0x13
 1016 00ee 00       		.byte	0
 1017 00ef 00       		.byte	0
 1018 00f0 0E       		.uleb128 0xe
 1019 00f1 05       		.uleb128 0x5
 1020 00f2 00       		.byte	0
 1021 00f3 03       		.uleb128 0x3
 1022 00f4 08       		.uleb128 0x8
 1023 00f5 3A       		.uleb128 0x3a
 1024 00f6 0B       		.uleb128 0xb
 1025 00f7 3B       		.uleb128 0x3b
 1026 00f8 0B       		.uleb128 0xb
 1027 00f9 49       		.uleb128 0x49
 1028 00fa 13       		.uleb128 0x13
 1029 00fb 02       		.uleb128 0x2
 1030 00fc 06       		.uleb128 0x6
 1031 00fd 00       		.byte	0
 1032 00fe 00       		.byte	0
 1033 00ff 0F       		.uleb128 0xf
 1034 0100 24       		.uleb128 0x24
 1035 0101 00       		.byte	0
ARM GAS  C:\Users\embedded\AppData\Local\Temp\ccD0wwqi.s 			page 21


 1036 0102 0B       		.uleb128 0xb
 1037 0103 0B       		.uleb128 0xb
 1038 0104 3E       		.uleb128 0x3e
 1039 0105 0B       		.uleb128 0xb
 1040 0106 03       		.uleb128 0x3
 1041 0107 08       		.uleb128 0x8
 1042 0108 00       		.byte	0
 1043 0109 00       		.byte	0
 1044 010a 00       		.byte	0
 1045              		.section	.debug_loc,"",%progbits
 1046              	.Ldebug_loc0:
 1047              	.LLST0:
 1048 0000 5A000000 		.4byte	.LVL1-.Ltext0
 1049 0004 5C000000 		.4byte	.LVL2-.Ltext0
 1050 0008 0100     		.2byte	0x1
 1051 000a 50       		.byte	0x50
 1052 000b 00000000 		.4byte	0
 1053 000f 00000000 		.4byte	0
 1054              	.LLST1:
 1055 0013 68000000 		.4byte	.LFB3-.Ltext0
 1056 0017 6A000000 		.4byte	.LCFI0-.Ltext0
 1057 001b 0200     		.2byte	0x2
 1058 001d 7D       		.byte	0x7d
 1059 001e 00       		.sleb128 0
 1060 001f 6A000000 		.4byte	.LCFI0-.Ltext0
 1061 0023 86000000 		.4byte	.LFE3-.Ltext0
 1062 0027 0200     		.2byte	0x2
 1063 0029 7D       		.byte	0x7d
 1064 002a 10       		.sleb128 16
 1065 002b 00000000 		.4byte	0
 1066 002f 00000000 		.4byte	0
 1067              	.LLST2:
 1068 0033 68000000 		.4byte	.LVL3-.Ltext0
 1069 0037 6E000000 		.4byte	.LVL4-.Ltext0
 1070 003b 0100     		.2byte	0x1
 1071 003d 50       		.byte	0x50
 1072 003e 6E000000 		.4byte	.LVL4-.Ltext0
 1073 0042 80000000 		.4byte	.LVL9-.Ltext0
 1074 0046 0100     		.2byte	0x1
 1075 0048 55       		.byte	0x55
 1076 0049 80000000 		.4byte	.LVL9-.Ltext0
 1077 004d 86000000 		.4byte	.LFE3-.Ltext0
 1078 0051 0400     		.2byte	0x4
 1079 0053 F3       		.byte	0xf3
 1080 0054 01       		.uleb128 0x1
 1081 0055 50       		.byte	0x50
 1082 0056 9F       		.byte	0x9f
 1083 0057 00000000 		.4byte	0
 1084 005b 00000000 		.4byte	0
 1085              	.LLST3:
 1086 005f 68000000 		.4byte	.LVL3-.Ltext0
 1087 0063 6E000000 		.4byte	.LVL4-.Ltext0
 1088 0067 0200     		.2byte	0x2
 1089 0069 30       		.byte	0x30
 1090 006a 9F       		.byte	0x9f
 1091 006b 6E000000 		.4byte	.LVL4-.Ltext0
 1092 006f 76000000 		.4byte	.LVL5-.Ltext0
ARM GAS  C:\Users\embedded\AppData\Local\Temp\ccD0wwqi.s 			page 22


 1093 0073 0100     		.2byte	0x1
 1094 0075 54       		.byte	0x54
 1095 0076 7E000000 		.4byte	.LVL7-.Ltext0
 1096 007a 80000000 		.4byte	.LVL8-.Ltext0
 1097 007e 0100     		.2byte	0x1
 1098 0080 54       		.byte	0x54
 1099 0081 00000000 		.4byte	0
 1100 0085 00000000 		.4byte	0
 1101              	.LLST4:
 1102 0089 86000000 		.4byte	.LFB4-.Ltext0
 1103 008d 88000000 		.4byte	.LCFI1-.Ltext0
 1104 0091 0200     		.2byte	0x2
 1105 0093 7D       		.byte	0x7d
 1106 0094 00       		.sleb128 0
 1107 0095 88000000 		.4byte	.LCFI1-.Ltext0
 1108 0099 98000000 		.4byte	.LFE4-.Ltext0
 1109 009d 0200     		.2byte	0x2
 1110 009f 7D       		.byte	0x7d
 1111 00a0 08       		.sleb128 8
 1112 00a1 00000000 		.4byte	0
 1113 00a5 00000000 		.4byte	0
 1114              	.LLST5:
 1115 00a9 86000000 		.4byte	.LVL10-.Ltext0
 1116 00ad 8A000000 		.4byte	.LVL11-.Ltext0
 1117 00b1 0100     		.2byte	0x1
 1118 00b3 50       		.byte	0x50
 1119 00b4 8A000000 		.4byte	.LVL11-.Ltext0
 1120 00b8 98000000 		.4byte	.LFE4-.Ltext0
 1121 00bc 0400     		.2byte	0x4
 1122 00be F3       		.byte	0xf3
 1123 00bf 01       		.uleb128 0x1
 1124 00c0 50       		.byte	0x50
 1125 00c1 9F       		.byte	0x9f
 1126 00c2 00000000 		.4byte	0
 1127 00c6 00000000 		.4byte	0
 1128              	.LLST6:
 1129 00ca F2000000 		.4byte	.LVL14-.Ltext0
 1130 00ce F4000000 		.4byte	.LVL15-.Ltext0
 1131 00d2 0100     		.2byte	0x1
 1132 00d4 50       		.byte	0x50
 1133 00d5 00000000 		.4byte	0
 1134 00d9 00000000 		.4byte	0
 1135              	.LLST7:
 1136 00dd 00010000 		.4byte	.LFB8-.Ltext0
 1137 00e1 02010000 		.4byte	.LCFI2-.Ltext0
 1138 00e5 0200     		.2byte	0x2
 1139 00e7 7D       		.byte	0x7d
 1140 00e8 00       		.sleb128 0
 1141 00e9 02010000 		.4byte	.LCFI2-.Ltext0
 1142 00ed 1E010000 		.4byte	.LFE8-.Ltext0
 1143 00f1 0200     		.2byte	0x2
 1144 00f3 7D       		.byte	0x7d
 1145 00f4 10       		.sleb128 16
 1146 00f5 00000000 		.4byte	0
 1147 00f9 00000000 		.4byte	0
 1148              	.LLST8:
 1149 00fd 00010000 		.4byte	.LVL16-.Ltext0
ARM GAS  C:\Users\embedded\AppData\Local\Temp\ccD0wwqi.s 			page 23


 1150 0101 06010000 		.4byte	.LVL17-.Ltext0
 1151 0105 0100     		.2byte	0x1
 1152 0107 50       		.byte	0x50
 1153 0108 06010000 		.4byte	.LVL17-.Ltext0
 1154 010c 18010000 		.4byte	.LVL22-.Ltext0
 1155 0110 0100     		.2byte	0x1
 1156 0112 55       		.byte	0x55
 1157 0113 18010000 		.4byte	.LVL22-.Ltext0
 1158 0117 1E010000 		.4byte	.LFE8-.Ltext0
 1159 011b 0400     		.2byte	0x4
 1160 011d F3       		.byte	0xf3
 1161 011e 01       		.uleb128 0x1
 1162 011f 50       		.byte	0x50
 1163 0120 9F       		.byte	0x9f
 1164 0121 00000000 		.4byte	0
 1165 0125 00000000 		.4byte	0
 1166              	.LLST9:
 1167 0129 00010000 		.4byte	.LVL16-.Ltext0
 1168 012d 06010000 		.4byte	.LVL17-.Ltext0
 1169 0131 0200     		.2byte	0x2
 1170 0133 30       		.byte	0x30
 1171 0134 9F       		.byte	0x9f
 1172 0135 06010000 		.4byte	.LVL17-.Ltext0
 1173 0139 0E010000 		.4byte	.LVL18-.Ltext0
 1174 013d 0100     		.2byte	0x1
 1175 013f 54       		.byte	0x54
 1176 0140 16010000 		.4byte	.LVL20-.Ltext0
 1177 0144 18010000 		.4byte	.LVL21-.Ltext0
 1178 0148 0100     		.2byte	0x1
 1179 014a 54       		.byte	0x54
 1180 014b 00000000 		.4byte	0
 1181 014f 00000000 		.4byte	0
 1182              	.LLST10:
 1183 0153 1E010000 		.4byte	.LFB9-.Ltext0
 1184 0157 20010000 		.4byte	.LCFI3-.Ltext0
 1185 015b 0200     		.2byte	0x2
 1186 015d 7D       		.byte	0x7d
 1187 015e 00       		.sleb128 0
 1188 015f 20010000 		.4byte	.LCFI3-.Ltext0
 1189 0163 30010000 		.4byte	.LFE9-.Ltext0
 1190 0167 0200     		.2byte	0x2
 1191 0169 7D       		.byte	0x7d
 1192 016a 08       		.sleb128 8
 1193 016b 00000000 		.4byte	0
 1194 016f 00000000 		.4byte	0
 1195              	.LLST11:
 1196 0173 1E010000 		.4byte	.LVL23-.Ltext0
 1197 0177 22010000 		.4byte	.LVL24-.Ltext0
 1198 017b 0100     		.2byte	0x1
 1199 017d 50       		.byte	0x50
 1200 017e 22010000 		.4byte	.LVL24-.Ltext0
 1201 0182 30010000 		.4byte	.LFE9-.Ltext0
 1202 0186 0400     		.2byte	0x4
 1203 0188 F3       		.byte	0xf3
 1204 0189 01       		.uleb128 0x1
 1205 018a 50       		.byte	0x50
 1206 018b 9F       		.byte	0x9f
ARM GAS  C:\Users\embedded\AppData\Local\Temp\ccD0wwqi.s 			page 24


 1207 018c 00000000 		.4byte	0
 1208 0190 00000000 		.4byte	0
 1209              	.LLST12:
 1210 0194 30010000 		.4byte	.LFB10-.Ltext0
 1211 0198 34010000 		.4byte	.LCFI4-.Ltext0
 1212 019c 0200     		.2byte	0x2
 1213 019e 7D       		.byte	0x7d
 1214 019f 00       		.sleb128 0
 1215 01a0 34010000 		.4byte	.LCFI4-.Ltext0
 1216 01a4 6E010000 		.4byte	.LFE10-.Ltext0
 1217 01a8 0200     		.2byte	0x2
 1218 01aa 7D       		.byte	0x7d
 1219 01ab 08       		.sleb128 8
 1220 01ac 00000000 		.4byte	0
 1221 01b0 00000000 		.4byte	0
 1222              	.LLST13:
 1223 01b4 30010000 		.4byte	.LVL26-.Ltext0
 1224 01b8 39010000 		.4byte	.LVL27-1-.Ltext0
 1225 01bc 0100     		.2byte	0x1
 1226 01be 50       		.byte	0x50
 1227 01bf 39010000 		.4byte	.LVL27-1-.Ltext0
 1228 01c3 6E010000 		.4byte	.LFE10-.Ltext0
 1229 01c7 0400     		.2byte	0x4
 1230 01c9 F3       		.byte	0xf3
 1231 01ca 01       		.uleb128 0x1
 1232 01cb 50       		.byte	0x50
 1233 01cc 9F       		.byte	0x9f
 1234 01cd 00000000 		.4byte	0
 1235 01d1 00000000 		.4byte	0
 1236              		.section	.debug_aranges,"",%progbits
 1237 0000 1C000000 		.4byte	0x1c
 1238 0004 0200     		.2byte	0x2
 1239 0006 00000000 		.4byte	.Ldebug_info0
 1240 000a 04       		.byte	0x4
 1241 000b 00       		.byte	0
 1242 000c 0000     		.2byte	0
 1243 000e 0000     		.2byte	0
 1244 0010 00000000 		.4byte	.Ltext0
 1245 0014 6E010000 		.4byte	.Letext0-.Ltext0
 1246 0018 00000000 		.4byte	0
 1247 001c 00000000 		.4byte	0
 1248              		.section	.debug_line,"",%progbits
 1249              	.Ldebug_line0:
 1250 0000 BE000000 		.section	.debug_str,"MS",%progbits,1
 1250      02002100 
 1250      00000201 
 1250      FB0E0D00 
 1250      01010101 
 1251              	.LASF1:
 1252 0000 55415254 		.ascii	"UART1_String\000"
 1252      315F5374 
 1252      72696E67 
 1252      00
 1253              	.LASF15:
 1254 000d 5458305F 		.ascii	"TX0_Int\000"
 1254      496E7400 
 1255              	.LASF7:
ARM GAS  C:\Users\embedded\AppData\Local\Temp\ccD0wwqi.s 			page 25


 1256 0015 52656365 		.ascii	"Received_char\000"
 1256      69766564 
 1256      5F636861 
 1256      7200
 1257              	.LASF10:
 1258 0023 55415254 		.ascii	"UART0_TX\000"
 1258      305F5458 
 1258      00
 1259              	.LASF0:
 1260 002c 55415254 		.ascii	"UART1_TX\000"
 1260      315F5458 
 1260      00
 1261              	.LASF3:
 1262 0035 53747269 		.ascii	"String\000"
 1262      6E6700
 1263              	.LASF13:
 1264 003c 55415254 		.ascii	"UART0_String\000"
 1264      305F5374 
 1264      72696E67 
 1264      00
 1265              	.LASF8:
 1266 0049 55415254 		.ascii	"UART1_Init\000"
 1266      315F496E 
 1266      697400
 1267              	.LASF11:
 1268 0054 55415254 		.ascii	"UART1_RX\000"
 1268      315F5258 
 1268      00
 1269              	.LASF9:
 1270 005d 55415254 		.ascii	"UART0_Init\000"
 1270      305F496E 
 1270      697400
 1271              	.LASF5:
 1272 0068 756E7369 		.ascii	"unsigned char\000"
 1272      676E6564 
 1272      20636861 
 1272      7200
 1273              	.LASF14:
 1274 0076 55415254 		.ascii	"UART0_Char_Response\000"
 1274      305F4368 
 1274      61725F52 
 1274      6573706F 
 1274      6E736500 
 1275              	.LASF2:
 1276 008a 64617461 		.ascii	"data\000"
 1276      00
 1277              	.LASF16:
 1278 008f 474E5520 		.ascii	"GNU C11 5.4.1 20160609 (release) [ARM/embedded-5-br"
 1278      43313120 
 1278      352E342E 
 1278      31203230 
 1278      31363036 
 1279 00c2 616E6368 		.ascii	"anch revision 237715] -mcpu=arm7tdmi -mthumb -mthum"
 1279      20726576 
 1279      6973696F 
 1279      6E203233 
 1279      37373135 
ARM GAS  C:\Users\embedded\AppData\Local\Temp\ccD0wwqi.s 			page 26


 1280 00f5 622D696E 		.ascii	"b-interwork -gdwarf-2 -Os\000"
 1280      74657277 
 1280      6F726B20 
 1280      2D676477 
 1280      6172662D 
 1281              	.LASF6:
 1282 010f 55415254 		.ascii	"UART1_Char_Response\000"
 1282      315F4368 
 1282      61725F52 
 1282      6573706F 
 1282      6E736500 
 1283              	.LASF4:
 1284 0123 63686172 		.ascii	"char\000"
 1284      00
 1285              	.LASF12:
 1286 0128 55415254 		.ascii	"UART0_RX\000"
 1286      305F5258 
 1286      00
 1287              	.LASF18:
 1288 0131 433A5C45 		.ascii	"C:\\Embedded\\2148MiniDemo\\2148\000"
 1288      6D626564 
 1288      6465645C 
 1288      32313438 
 1288      4D696E69 
 1289              	.LASF17:
 1290 014f 55415254 		.ascii	"UART_lib.c\000"
 1290      5F6C6962 
 1290      2E6300
 1291              		.ident	"GCC: (GNU Tools for ARM Embedded Processors) 5.4.1 20160609 (release) [ARM/embedded-5-bran
ARM GAS  C:\Users\embedded\AppData\Local\Temp\ccD0wwqi.s 			page 27


DEFINED SYMBOLS
                            *ABS*:00000000 UART_lib.c
C:\Users\embedded\AppData\Local\Temp\ccD0wwqi.s:19     .text:00000000 $t
C:\Users\embedded\AppData\Local\Temp\ccD0wwqi.s:24     .text:00000000 UART1_Init
C:\Users\embedded\AppData\Local\Temp\ccD0wwqi.s:65     .text:00000024 $d
C:\Users\embedded\AppData\Local\Temp\ccD0wwqi.s:72     .text:00000034 $t
C:\Users\embedded\AppData\Local\Temp\ccD0wwqi.s:77     .text:00000034 UART1_TX
C:\Users\embedded\AppData\Local\Temp\ccD0wwqi.s:105    .text:00000044 $d
C:\Users\embedded\AppData\Local\Temp\ccD0wwqi.s:110    .text:0000004c $t
C:\Users\embedded\AppData\Local\Temp\ccD0wwqi.s:115    .text:0000004c UART1_RX
C:\Users\embedded\AppData\Local\Temp\ccD0wwqi.s:145    .text:00000060 $d
C:\Users\embedded\AppData\Local\Temp\ccD0wwqi.s:150    .text:00000068 $t
C:\Users\embedded\AppData\Local\Temp\ccD0wwqi.s:155    .text:00000068 UART1_String
C:\Users\embedded\AppData\Local\Temp\ccD0wwqi.s:207    .text:00000086 UART1_Char_Response
C:\Users\embedded\AppData\Local\Temp\ccD0wwqi.s:242    .text:00000098 UART0_Init
C:\Users\embedded\AppData\Local\Temp\ccD0wwqi.s:279    .text:000000bc $d
C:\Users\embedded\AppData\Local\Temp\ccD0wwqi.s:286    .text:000000cc $t
C:\Users\embedded\AppData\Local\Temp\ccD0wwqi.s:291    .text:000000cc UART0_TX
C:\Users\embedded\AppData\Local\Temp\ccD0wwqi.s:319    .text:000000dc $d
C:\Users\embedded\AppData\Local\Temp\ccD0wwqi.s:324    .text:000000e4 $t
C:\Users\embedded\AppData\Local\Temp\ccD0wwqi.s:329    .text:000000e4 UART0_RX
C:\Users\embedded\AppData\Local\Temp\ccD0wwqi.s:359    .text:000000f8 $d
C:\Users\embedded\AppData\Local\Temp\ccD0wwqi.s:364    .text:00000100 $t
C:\Users\embedded\AppData\Local\Temp\ccD0wwqi.s:369    .text:00000100 UART0_String
C:\Users\embedded\AppData\Local\Temp\ccD0wwqi.s:421    .text:0000011e UART0_Char_Response
C:\Users\embedded\AppData\Local\Temp\ccD0wwqi.s:458    .text:00000130 TX0_Int
                     .debug_frame:00000010 $d

UNDEFINED SYMBOLS
__aeabi_idivmod
__aeabi_idiv
