ARM GAS  C:\Users\embedded\AppData\Local\Temp\ccD0wwqi.s 			page 1


   1              		.syntax unified
   2              		.cpu arm7tdmi
   3              		.fpu softvfp
   4              		.eabi_attribute 20, 1
   5              		.eabi_attribute 21, 1
   6              		.eabi_attribute 23, 3
   7              		.eabi_attribute 24, 1
   8              		.eabi_attribute 25, 1
   9              		.eabi_attribute 26, 1
  10              		.eabi_attribute 30, 4
  11              		.eabi_attribute 34, 0
  12              		.eabi_attribute 18, 4
  13              		.thumb
  14              		.syntax unified
  15              		.file	"UART_lib.c"
  16              		.text
  17              	.Ltext0:
  18              		.cfi_sections	.debug_frame
  19              		.align	1
  20              		.global	UART1_Init
  21              		.code	16
  22              		.thumb_func
  23              		.type	UART1_Init, %function
  24              	UART1_Init:
  25              	.LFB0:
  26              		.file 1 "UART_lib.c"
   1:UART_lib.c    **** /*
   2:UART_lib.c    **** Author : Team Silicon TechnoLabs
   3:UART_lib.c    **** Data : 18/10/2015
   4:UART_lib.c    **** Email : harshborad@gmail.com
   5:UART_lib.c    **** Web : www.silicontechnolabs.in
   6:UART_lib.c    **** */
   7:UART_lib.c    **** 
   8:UART_lib.c    **** #include<lpc2xxx.h>
   9:UART_lib.c    **** #include "UART_lib.h"
  10:UART_lib.c    **** 
  11:UART_lib.c    **** 
  12:UART_lib.c    **** void UART1_Init(void)
  13:UART_lib.c    **** {
  27              		.loc 1 13 0
  28              		.cfi_startproc
  29              		@ Function supports interworking.
  30              		@ args = 0, pretend = 0, frame = 0
  31              		@ frame_needed = 0, uses_anonymous_args = 0
  32              		@ link register save eliminated.
  14:UART_lib.c    ****     PINSEL0|=0x50000;
  33              		.loc 1 14 0
  34 0000 A021     		movs	r1, #160
  35 0002 084A     		ldr	r2, .L2
  36 0004 1368     		ldr	r3, [r2]
  37 0006 C902     		lsls	r1, r1, #11
  38 0008 0B43     		orrs	r3, r1
  39 000a 1360     		str	r3, [r2]
  15:UART_lib.c    **** 	U1LCR=0x83;
  40              		.loc 1 15 0
  41 000c 8322     		movs	r2, #131
  16:UART_lib.c    **** 	U1DLL=0x61;
ARM GAS  C:\Users\embedded\AppData\Local\Temp\ccD0wwqi.s 			page 2


  42              		.loc 1 16 0
  43 000e 6121     		movs	r1, #97
  15:UART_lib.c    **** 	U1LCR=0x83;
  44              		.loc 1 15 0
  45 0010 054B     		ldr	r3, .L2+4
  46 0012 1A60     		str	r2, [r3]
  47              		.loc 1 16 0
  48 0014 054A     		ldr	r2, .L2+8
  49 0016 1160     		str	r1, [r2]
  17:UART_lib.c    **** 	U1DLM=0x00;
  50              		.loc 1 17 0
  51 0018 0021     		movs	r1, #0
  52 001a 054A     		ldr	r2, .L2+12
  53 001c 1160     		str	r1, [r2]
  18:UART_lib.c    **** 	U1LCR=0x03;
  54              		.loc 1 18 0
  55 001e 0322     		movs	r2, #3
  19:UART_lib.c    **** }
  56              		.loc 1 19 0
  57              		@ sp needed
  18:UART_lib.c    **** 	U1LCR=0x03;
  58              		.loc 1 18 0
  59 0020 1A60     		str	r2, [r3]
  60              		.loc 1 19 0
  61 0022 7047     		bx	lr
  62              	.L3:
  63              		.align	2
  64              	.L2:
  65 0024 00C002E0 		.word	-536690688
  66 0028 0C0001E0 		.word	-536805364
  67 002c 000001E0 		.word	-536805376
  68 0030 040001E0 		.word	-536805372
  69              		.cfi_endproc
  70              	.LFE0:
  71              		.size	UART1_Init, .-UART1_Init
  72              		.align	1
  73              		.global	UART1_TX
  74              		.code	16
  75              		.thumb_func
  76              		.type	UART1_TX, %function
  77              	UART1_TX:
  78              	.LFB1:
  20:UART_lib.c    **** void UART1_TX(char data)
  21:UART_lib.c    **** {
  79              		.loc 1 21 0
  80              		.cfi_startproc
  81              		@ Function supports interworking.
  82              		@ args = 0, pretend = 0, frame = 0
  83              		@ frame_needed = 0, uses_anonymous_args = 0
  84              		@ link register save eliminated.
  85              	.LVL0:
  22:UART_lib.c    **** 	while(!(U1LSR&0x20));
  86              		.loc 1 22 0
  87 0034 2023     		movs	r3, #32
  88 0036 0349     		ldr	r1, .L9
  89              	.L5:
  90              		.loc 1 22 0 is_stmt 0 discriminator 1
ARM GAS  C:\Users\embedded\AppData\Local\Temp\ccD0wwqi.s 			page 3


  91 0038 0A68     		ldr	r2, [r1]
  92 003a 1A42     		tst	r2, r3
  93 003c FCD0     		beq	.L5
  23:UART_lib.c    ****     U1THR=data;
  94              		.loc 1 23 0 is_stmt 1
  95 003e 024B     		ldr	r3, .L9+4
  24:UART_lib.c    **** }
  96              		.loc 1 24 0
  97              		@ sp needed
  23:UART_lib.c    ****     U1THR=data;
  98              		.loc 1 23 0
  99 0040 1860     		str	r0, [r3]
 100              		.loc 1 24 0
 101 0042 7047     		bx	lr
 102              	.L10:
 103              		.align	2
 104              	.L9:
 105 0044 140001E0 		.word	-536805356
 106 0048 000001E0 		.word	-536805376
 107              		.cfi_endproc
 108              	.LFE1:
 109              		.size	UART1_TX, .-UART1_TX
 110              		.align	1
 111              		.global	UART1_RX
 112              		.code	16
 113              		.thumb_func
 114              		.type	UART1_RX, %function
 115              	UART1_RX:
 116              	.LFB2:
  25:UART_lib.c    **** char UART1_RX(void)
  26:UART_lib.c    **** {
 117              		.loc 1 26 0
 118              		.cfi_startproc
 119              		@ Function supports interworking.
 120              		@ args = 0, pretend = 0, frame = 0
 121              		@ frame_needed = 0, uses_anonymous_args = 0
 122              		@ link register save eliminated.
  27:UART_lib.c    ****     char p;
  28:UART_lib.c    **** 	while(!(U1LSR&0x01));
 123              		.loc 1 28 0
 124 004c 0123     		movs	r3, #1
 125 004e 0449     		ldr	r1, .L15
 126              	.L12:
 127              		.loc 1 28 0 is_stmt 0 discriminator 1
 128 0050 0A68     		ldr	r2, [r1]
 129 0052 1A42     		tst	r2, r3
 130 0054 FCD0     		beq	.L12
  29:UART_lib.c    **** 	p=U1RBR;
 131              		.loc 1 29 0 is_stmt 1
 132 0056 034B     		ldr	r3, .L15+4
 133 0058 1868     		ldr	r0, [r3]
 134              	.LVL1:
  30:UART_lib.c    **** 	return p;
 135              		.loc 1 30 0
 136 005a 0006     		lsls	r0, r0, #24
 137              	.LVL2:
 138 005c 000E     		lsrs	r0, r0, #24
ARM GAS  C:\Users\embedded\AppData\Local\Temp\ccD0wwqi.s 			page 4


  31:UART_lib.c    **** }
 139              		.loc 1 31 0
 140              		@ sp needed
 141 005e 7047     		bx	lr
 142              	.L16:
 143              		.align	2
 144              	.L15:
 145 0060 140001E0 		.word	-536805356
 146 0064 000001E0 		.word	-536805376
 147              		.cfi_endproc
 148              	.LFE2:
 149              		.size	UART1_RX, .-UART1_RX
 150              		.align	1
 151              		.global	UART1_String
 152              		.code	16
 153              		.thumb_func
 154              		.type	UART1_String, %function
 155              	UART1_String:
 156              	.LFB3:
  32:UART_lib.c    **** void UART1_String(char String[])
  33:UART_lib.c    **** {
 157              		.loc 1 33 0
 158              		.cfi_startproc
 159              		@ Function supports interworking.
 160              		@ args = 0, pretend = 0, frame = 0
 161              		@ frame_needed = 0, uses_anonymous_args = 0
 162              	.LVL3:
 163 0068 70B5     		push	{r4, r5, r6, lr}
 164              	.LCFI0:
 165              		.cfi_def_cfa_offset 16
 166              		.cfi_offset 4, -16
 167              		.cfi_offset 5, -12
 168              		.cfi_offset 6, -8
 169              		.cfi_offset 14, -4
 170              		.loc 1 33 0
 171 006a 0500     		movs	r5, r0
  34:UART_lib.c    ****     unsigned char i;
  35:UART_lib.c    **** 	for(i=0;String[i]!='\0';i++)
 172              		.loc 1 35 0
 173 006c 0024     		movs	r4, #0
 174              	.LVL4:
 175              	.L18:
 176              		.loc 1 35 0 is_stmt 0 discriminator 1
 177 006e 285D     		ldrb	r0, [r5, r4]
 178 0070 0028     		cmp	r0, #0
 179 0072 05D0     		beq	.L20
 180              		.loc 1 35 0 discriminator 3
 181 0074 0134     		adds	r4, r4, #1
 182              	.LVL5:
 183 0076 2406     		lsls	r4, r4, #24
  36:UART_lib.c    **** 	{
  37:UART_lib.c    **** 		UART1_TX(String[i]);
 184              		.loc 1 37 0 is_stmt 1 discriminator 3
 185 0078 FFF7FEFF 		bl	UART1_TX
 186              	.LVL6:
  35:UART_lib.c    **** 	{
 187              		.loc 1 35 0 discriminator 3
ARM GAS  C:\Users\embedded\AppData\Local\Temp\ccD0wwqi.s 			page 5


 188 007c 240E     		lsrs	r4, r4, #24
 189              	.LVL7:
 190 007e F6E7     		b	.L18
 191              	.L20:
  38:UART_lib.c    **** 	}
  39:UART_lib.c    **** }
 192              		.loc 1 39 0
 193              		@ sp needed
 194              	.LVL8:
 195              	.LVL9:
 196 0080 70BC     		pop	{r4, r5, r6}
 197 0082 01BC     		pop	{r0}
 198 0084 0047     		bx	r0
 199              		.cfi_endproc
 200              	.LFE3:
 201              		.size	UART1_String, .-UART1_String
 202              		.align	1
 203              		.global	UART1_Char_Response
 204              		.code	16
 205              		.thumb_func
 206              		.type	UART1_Char_Response, %function
 207              	UART1_Char_Response:
 208              	.LFB4:
  40:UART_lib.c    **** void UART1_Char_Response(char data)
  41:UART_lib.c    **** {
 209              		.loc 1 41 0
 210              		.cfi_startproc
 211              		@ Function supports interworking.
 212              		@ args = 0, pretend = 0, frame = 0
 213              		@ frame_needed = 0, uses_anonymous_args = 0
 214              	.LVL10:
 215 0086 10B5     		push	{r4, lr}
 216              	.LCFI1:
 217              		.cfi_def_cfa_offset 8
 218              		.cfi_offset 4, -8
 219              		.cfi_offset 14, -4
 220 0088 0400     		movs	r4, r0
 221              	.LVL11:
 222              	.L23:
  42:UART_lib.c    **** 	char Received_char;
  43:UART_lib.c    **** 	Received_char = UART1_RX();
  44:UART_lib.c    **** 	while(Received_char != data)
  45:UART_lib.c    **** 	{
  46:UART_lib.c    **** 		Received_char = UART1_RX();
 223              		.loc 1 46 0
 224 008a FFF7FEFF 		bl	UART1_RX
 225              	.LVL12:
  44:UART_lib.c    **** 	{
 226              		.loc 1 44 0
 227 008e A042     		cmp	r0, r4
 228 0090 FBD1     		bne	.L23
  47:UART_lib.c    **** 	}
  48:UART_lib.c    **** }
 229              		.loc 1 48 0
 230              		@ sp needed
 231 0092 10BC     		pop	{r4}
 232 0094 01BC     		pop	{r0}
ARM GAS  C:\Users\embedded\AppData\Local\Temp\ccD0wwqi.s 			page 6


 233 0096 0047     		bx	r0
 234              		.cfi_endproc
 235              	.LFE4:
 236              		.size	UART1_Char_Response, .-UART1_Char_Response
 237              		.align	1
 238              		.global	UART0_Init
 239              		.code	16
 240              		.thumb_func
 241              		.type	UART0_Init, %function
 242              	UART0_Init:
 243              	.LFB5:
  49:UART_lib.c    **** 
  50:UART_lib.c    **** 
  51:UART_lib.c    **** 
  52:UART_lib.c    **** void UART0_Init(void)
  53:UART_lib.c    **** {
 244              		.loc 1 53 0
 245              		.cfi_startproc
 246              		@ Function supports interworking.
 247              		@ args = 0, pretend = 0, frame = 0
 248              		@ frame_needed = 0, uses_anonymous_args = 0
 249              		@ link register save eliminated.
  54:UART_lib.c    ****     PINSEL0|=0x5;
 250              		.loc 1 54 0
 251 0098 0521     		movs	r1, #5
 252 009a 084A     		ldr	r2, .L25
 253 009c 1368     		ldr	r3, [r2]
 254 009e 0B43     		orrs	r3, r1
 255 00a0 1360     		str	r3, [r2]
  55:UART_lib.c    **** 	U0LCR=0x83;
 256              		.loc 1 55 0
 257 00a2 8322     		movs	r2, #131
 258 00a4 064B     		ldr	r3, .L25+4
 259 00a6 1A60     		str	r2, [r3]
  56:UART_lib.c    **** 	U0DLL=0x61;
 260              		.loc 1 56 0
 261 00a8 064A     		ldr	r2, .L25+8
 262 00aa 5C31     		adds	r1, r1, #92
 263 00ac 1160     		str	r1, [r2]
  57:UART_lib.c    **** 	U0DLM=0x00;
 264              		.loc 1 57 0
 265 00ae 0021     		movs	r1, #0
 266 00b0 054A     		ldr	r2, .L25+12
 267 00b2 1160     		str	r1, [r2]
  58:UART_lib.c    **** 	U0LCR=0x03;
 268              		.loc 1 58 0
 269 00b4 0322     		movs	r2, #3
  59:UART_lib.c    **** }
 270              		.loc 1 59 0
 271              		@ sp needed
  58:UART_lib.c    **** 	U0LCR=0x03;
 272              		.loc 1 58 0
 273 00b6 1A60     		str	r2, [r3]
 274              		.loc 1 59 0
 275 00b8 7047     		bx	lr
 276              	.L26:
 277 00ba C046     		.align	2
ARM GAS  C:\Users\embedded\AppData\Local\Temp\ccD0wwqi.s 			page 7


 278              	.L25:
 279 00bc 00C002E0 		.word	-536690688
 280 00c0 0CC000E0 		.word	-536821748
 281 00c4 00C000E0 		.word	-536821760
 282 00c8 04C000E0 		.word	-536821756
 283              		.cfi_endproc
 284              	.LFE5:
 285              		.size	UART0_Init, .-UART0_Init
 286              		.align	1
 287              		.global	UART0_TX
 288              		.code	16
 289              		.thumb_func
 290              		.type	UART0_TX, %function
 291              	UART0_TX:
 292              	.LFB6:
  60:UART_lib.c    **** void UART0_TX(char data)
  61:UART_lib.c    **** {
 293              		.loc 1 61 0
 294              		.cfi_startproc
 295              		@ Function supports interworking.
 296              		@ args = 0, pretend = 0, frame = 0
 297              		@ frame_needed = 0, uses_anonymous_args = 0
 298              		@ link register save eliminated.
 299              	.LVL13:
  62:UART_lib.c    **** 	while(!(U0LSR&0x20));
 300              		.loc 1 62 0
 301 00cc 2023     		movs	r3, #32
 302 00ce 0349     		ldr	r1, .L31
 303              	.L28:
 304              		.loc 1 62 0 is_stmt 0 discriminator 1
 305 00d0 0A68     		ldr	r2, [r1]
 306 00d2 1A42     		tst	r2, r3
 307 00d4 FCD0     		beq	.L28
  63:UART_lib.c    ****     U0THR=data;
 308              		.loc 1 63 0 is_stmt 1
 309 00d6 024B     		ldr	r3, .L31+4
  64:UART_lib.c    **** }
 310              		.loc 1 64 0
 311              		@ sp needed
  63:UART_lib.c    ****     U0THR=data;
 312              		.loc 1 63 0
 313 00d8 1860     		str	r0, [r3]
 314              		.loc 1 64 0
 315 00da 7047     		bx	lr
 316              	.L32:
 317              		.align	2
 318              	.L31:
 319 00dc 14C000E0 		.word	-536821740
 320 00e0 00C000E0 		.word	-536821760
 321              		.cfi_endproc
 322              	.LFE6:
 323              		.size	UART0_TX, .-UART0_TX
 324              		.align	1
 325              		.global	UART0_RX
 326              		.code	16
 327              		.thumb_func
 328              		.type	UART0_RX, %function
ARM GAS  C:\Users\embedded\AppData\Local\Temp\ccD0wwqi.s 			page 8


 329              	UART0_RX:
 330              	.LFB7:
  65:UART_lib.c    **** char UART0_RX(void)
  66:UART_lib.c    **** {
 331              		.loc 1 66 0
 332              		.cfi_startproc
 333              		@ Function supports interworking.
 334              		@ args = 0, pretend = 0, frame = 0
 335              		@ frame_needed = 0, uses_anonymous_args = 0
 336              		@ link register save eliminated.
  67:UART_lib.c    ****     char p;
  68:UART_lib.c    **** 	while(!(U0LSR&0x01));
 337              		.loc 1 68 0
 338 00e4 0123     		movs	r3, #1
 339 00e6 0449     		ldr	r1, .L37
 340              	.L34:
 341              		.loc 1 68 0 is_stmt 0 discriminator 1
 342 00e8 0A68     		ldr	r2, [r1]
 343 00ea 1A42     		tst	r2, r3
 344 00ec FCD0     		beq	.L34
  69:UART_lib.c    **** 	p=U0RBR;
 345              		.loc 1 69 0 is_stmt 1
 346 00ee 034B     		ldr	r3, .L37+4
 347 00f0 1868     		ldr	r0, [r3]
 348              	.LVL14:
  70:UART_lib.c    **** 	return p;
 349              		.loc 1 70 0
 350 00f2 0006     		lsls	r0, r0, #24
 351              	.LVL15:
 352 00f4 000E     		lsrs	r0, r0, #24
  71:UART_lib.c    **** }
 353              		.loc 1 71 0
 354              		@ sp needed
 355 00f6 7047     		bx	lr
 356              	.L38:
 357              		.align	2
 358              	.L37:
 359 00f8 14C000E0 		.word	-536821740
 360 00fc 00C000E0 		.word	-536821760
 361              		.cfi_endproc
 362              	.LFE7:
 363              		.size	UART0_RX, .-UART0_RX
 364              		.align	1
 365              		.global	UART0_String
 366              		.code	16
 367              		.thumb_func
 368              		.type	UART0_String, %function
 369              	UART0_String:
 370              	.LFB8:
  72:UART_lib.c    **** void UART0_String(char String[])
  73:UART_lib.c    **** {
 371              		.loc 1 73 0
 372              		.cfi_startproc
 373              		@ Function supports interworking.
 374              		@ args = 0, pretend = 0, frame = 0
 375              		@ frame_needed = 0, uses_anonymous_args = 0
 376              	.LVL16:
ARM GAS  C:\Users\embedded\AppData\Local\Temp\ccD0wwqi.s 			page 9


 377 0100 70B5     		push	{r4, r5, r6, lr}
 378              	.LCFI2:
 379              		.cfi_def_cfa_offset 16
 380              		.cfi_offset 4, -16
 381              		.cfi_offset 5, -12
 382              		.cfi_offset 6, -8
 383              		.cfi_offset 14, -4
 384              		.loc 1 73 0
 385 0102 0500     		movs	r5, r0
  74:UART_lib.c    ****     unsigned char i;
  75:UART_lib.c    **** 	for(i=0;String[i]!='\0';i++)
 386              		.loc 1 75 0
 387 0104 0024     		movs	r4, #0
 388              	.LVL17:
 389              	.L40:
 390              		.loc 1 75 0 is_stmt 0 discriminator 1
 391 0106 285D     		ldrb	r0, [r5, r4]
 392 0108 0028     		cmp	r0, #0
 393 010a 05D0     		beq	.L42
 394              		.loc 1 75 0 discriminator 3
 395 010c 0134     		adds	r4, r4, #1
 396              	.LVL18:
 397 010e 2406     		lsls	r4, r4, #24
  76:UART_lib.c    **** 	{
  77:UART_lib.c    **** 		UART0_TX(String[i]);
 398              		.loc 1 77 0 is_stmt 1 discriminator 3
 399 0110 FFF7FEFF 		bl	UART0_TX
 400              	.LVL19:
  75:UART_lib.c    **** 	{
 401              		.loc 1 75 0 discriminator 3
 402 0114 240E     		lsrs	r4, r4, #24
 403              	.LVL20:
 404 0116 F6E7     		b	.L40
 405              	.L42:
  78:UART_lib.c    **** 	}
  79:UART_lib.c    **** }
 406              		.loc 1 79 0
 407              		@ sp needed
 408              	.LVL21:
 409              	.LVL22:
 410 0118 70BC     		pop	{r4, r5, r6}
 411 011a 01BC     		pop	{r0}
 412 011c 0047     		bx	r0
 413              		.cfi_endproc
 414              	.LFE8:
 415              		.size	UART0_String, .-UART0_String
 416              		.align	1
 417              		.global	UART0_Char_Response
 418              		.code	16
 419              		.thumb_func
 420              		.type	UART0_Char_Response, %function
 421              	UART0_Char_Response:
 422              	.LFB9:
  80:UART_lib.c    **** void UART0_Char_Response(char data)
  81:UART_lib.c    **** {
 423              		.loc 1 81 0
 424              		.cfi_startproc
ARM GAS  C:\Users\embedded\AppData\Local\Temp\ccD0wwqi.s 			page 10


 425              		@ Function supports interworking.
 426              		@ args = 0, pretend = 0, frame = 0
 427              		@ frame_needed = 0, uses_anonymous_args = 0
 428              	.LVL23:
 429 011e 10B5     		push	{r4, lr}
 430              	.LCFI3:
 431              		.cfi_def_cfa_offset 8
 432              		.cfi_offset 4, -8
 433              		.cfi_offset 14, -4
 434 0120 0400     		movs	r4, r0
 435              	.LVL24:
 436              	.L45:
  82:UART_lib.c    **** 	char Received_char;
  83:UART_lib.c    **** 	Received_char = UART0_RX();
  84:UART_lib.c    **** 	while(Received_char != data)
  85:UART_lib.c    **** 	{
  86:UART_lib.c    **** 		Received_char = UART0_RX();
 437              		.loc 1 86 0
 438 0122 FFF7FEFF 		bl	UART0_RX
 439              	.LVL25:
  84:UART_lib.c    **** 	{
 440              		.loc 1 84 0
 441 0126 A042     		cmp	r0, r4
 442 0128 FBD1     		bne	.L45
  87:UART_lib.c    **** 	}
  88:UART_lib.c    **** }
 443              		.loc 1 88 0
 444              		@ sp needed
 445 012a 10BC     		pop	{r4}
 446 012c 01BC     		pop	{r0}
 447 012e 0047     		bx	r0
 448              		.cfi_endproc
 449              	.LFE9:
 450              		.size	UART0_Char_Response, .-UART0_Char_Response
 451              		.global	__aeabi_idivmod
 452              		.global	__aeabi_idiv
 453              		.align	1
 454              		.global	TX0_Int
 455              		.code	16
 456              		.thumb_func
 457              		.type	TX0_Int, %function
 458              	TX0_Int:
 459              	.LFB10:
  89:UART_lib.c    **** void TX0_Int(int INT)
  90:UART_lib.c    **** {
 460              		.loc 1 90 0
 461              		.cfi_startproc
 462              		@ Function supports interworking.
 463              		@ args = 0, pretend = 0, frame = 0
 464              		@ frame_needed = 0, uses_anonymous_args = 0
 465              	.LVL26:
  91:UART_lib.c    **** 	//UART0_TX((INT/1000) + 48);
  92:UART_lib.c    **** 	//UART0_TX(((INT%1000)/100) + 48);
  93:UART_lib.c    **** 	UART0_TX(((INT%1000)%100)/10 + 48);
 466              		.loc 1 93 0
 467 0130 FA21     		movs	r1, #250
  90:UART_lib.c    **** 	//UART0_TX((INT/1000) + 48);
ARM GAS  C:\Users\embedded\AppData\Local\Temp\ccD0wwqi.s 			page 11


 468              		.loc 1 90 0
 469 0132 10B5     		push	{r4, lr}
 470              	.LCFI4:
 471              		.cfi_def_cfa_offset 8
 472              		.cfi_offset 4, -8
 473              		.cfi_offset 14, -4
 474              		.loc 1 93 0
 475 0134 8900     		lsls	r1, r1, #2
 476 0136 FFF7FEFF 		bl	__aeabi_idivmod
 477              	.LVL27:
 478 013a 0800     		movs	r0, r1
 479 013c 6421     		movs	r1, #100
 480 013e FFF7FEFF 		bl	__aeabi_idivmod
 481              	.LVL28:
 482 0142 0C00     		movs	r4, r1
 483 0144 0A21     		movs	r1, #10
 484 0146 2000     		movs	r0, r4
 485 0148 FFF7FEFF 		bl	__aeabi_idiv
 486              	.LVL29:
 487 014c 3030     		adds	r0, r0, #48
 488 014e 0006     		lsls	r0, r0, #24
 489 0150 000E     		lsrs	r0, r0, #24
 490 0152 FFF7FEFF 		bl	UART0_TX
 491              	.LVL30:
  94:UART_lib.c    **** 	UART0_TX(((INT%1000)%100)%10 + 48);
 492              		.loc 1 94 0
 493 0156 2000     		movs	r0, r4
 494 0158 0A21     		movs	r1, #10
 495 015a FFF7FEFF 		bl	__aeabi_idivmod
 496              	.LVL31:
 497 015e 3031     		adds	r1, r1, #48
 498 0160 0806     		lsls	r0, r1, #24
 499 0162 000E     		lsrs	r0, r0, #24
 500 0164 FFF7FEFF 		bl	UART0_TX
 501              	.LVL32:
  95:UART_lib.c    **** }
 502              		.loc 1 95 0
 503              		@ sp needed
 504 0168 10BC     		pop	{r4}
 505 016a 01BC     		pop	{r0}
 506 016c 0047     		bx	r0
 507              		.cfi_endproc
 508              	.LFE10:
 509              		.size	TX0_Int, .-TX0_Int
 510              	.Letext0: