ARM GAS  C:\Users\embedded\AppData\Local\Temp\cctRb3ik.s 			page 1


   1              		.cpu arm7tdmi
   2              		.fpu softvfp
   3              		.eabi_attribute 20, 1
   4              		.eabi_attribute 21, 1
   5              		.eabi_attribute 23, 3
   6              		.eabi_attribute 24, 1
   7              		.eabi_attribute 25, 1
   8              		.eabi_attribute 26, 1
   9              		.eabi_attribute 30, 4
  10              		.eabi_attribute 34, 0
  11              		.eabi_attribute 18, 4
  12              		.arm
  13              		.syntax divided
  14              		.file	"consol.c"
  15              		.text
  16              	.Ltext0:
  17              		.cfi_sections	.debug_frame
  18              		.align	2
  19              		.global	consolInit
  20              		.type	consolInit, %function
  21              	consolInit:
  22              	.LFB2:
  23              		.file 1 "consol.c"
   1:consol.c      **** /******************************************************************************
   2:consol.c      ****  *
   3:consol.c      ****  * Copyright:
   4:consol.c      ****  *    (C) 2000 - 2005 Embedded Artists AB
   5:consol.c      ****  *
   6:consol.c      ****  * Description:
   7:consol.c      ****  *    Framework specific implementation of consol
   8:consol.c      ****  *
   9:consol.c      ****  *****************************************************************************/
  10:consol.c      **** 
  11:consol.c      **** 
  12:consol.c      **** /******************************************************************************
  13:consol.c      ****  * Includes
  14:consol.c      ****  *****************************************************************************/
  15:consol.c      **** 
  16:consol.c      **** #include "lpc2xxx.h"                            /* LPC2xxx definitions */
  17:consol.c      **** #include <string.h>
  18:consol.c      **** #include <stdlib.h>
  19:consol.c      **** #include "config.h"
  20:consol.c      **** #include "consol.h"
  21:consol.c      **** #include "framework.h"
  22:consol.c      **** 
  23:consol.c      **** #if (CONSOLE_API_PRINTF == 1) || (CONSOLE_API_SCANF == 1) //own simple printf() or scanf()
  24:consol.c      **** #include <stdarg.h>
  25:consol.c      **** #endif
  26:consol.c      **** 
  27:consol.c      **** #define UART_DLL_VALUE (unsigned short)((PCLK / (CONSOL_BITRATE * 16.0)) + 0.5)
  28:consol.c      **** 
  29:consol.c      **** #if (CONSOLE_API_SCANF == 1)  //SIMPLE
  30:consol.c      **** #define __isalpha(c) (c >'9')
  31:consol.c      **** #define __isupper(c) !(c & 0x20)
  32:consol.c      **** #define __ishex(c) (((c >= '0')&&(c <= '9'))||((c >= 'A')&&(c <= 'F')))
  33:consol.c      **** #define __ascii2hex(c) ((c <= '9')? c-'0': c-'A'+10)
  34:consol.c      **** #endif
ARM GAS  C:\Users\embedded\AppData\Local\Temp\cctRb3ik.s 			page 2


  35:consol.c      **** 
  36:consol.c      **** /******************************************************************************
  37:consol.c      ****  * Implementation of local functions
  38:consol.c      ****  *****************************************************************************/
  39:consol.c      **** 
  40:consol.c      **** #if (CONSOLE_API_PRINTF == 1)  //OWN_PRINTF
  41:consol.c      **** /*****************************************************************************
  42:consol.c      ****  *
  43:consol.c      ****  * Description:
  44:consol.c      ****  *    Print a number. 
  45:consol.c      ****  *
  46:consol.c      ****  * Params:
  47:consol.c      ****  *    [in] outputFnk - Output function where characters to be printed are 
  48:consol.c      ****  *                      sent 
  49:consol.c      ****  * 
  50:consol.c      ****  *                Params (callback):
  51:consol.c      ****  *                   ch - Character to be printed 
  52:consol.c      ****  *    [in] number    - Number to be printed 
  53:consol.c      ****  *    [in] base      - Base when printing number (2-16) 
  54:consol.c      ****  *
  55:consol.c      ****  ****************************************************************************/
  56:consol.c      **** static void
  57:consol.c      **** printNum(void (*outputFnk) (char ch),
  58:consol.c      ****          unsigned int number,
  59:consol.c      ****          unsigned int base)
  60:consol.c      **** {
  61:consol.c      **** 	char *p;
  62:consol.c      **** 	char  buf[33];
  63:consol.c      **** 	char  hexChars[] = "0123456789abcdef";
  64:consol.c      **** 	
  65:consol.c      **** 	p = buf;
  66:consol.c      **** 	
  67:consol.c      **** 	do {
  68:consol.c      **** 		*p++ = hexChars[number % base];
  69:consol.c      **** 	} while (number /= base);
  70:consol.c      **** 	
  71:consol.c      **** 	do {
  72:consol.c      **** 		outputFnk(*--p);
  73:consol.c      **** 	} while (p > buf);
  74:consol.c      **** }
  75:consol.c      **** 
  76:consol.c      **** /*****************************************************************************
  77:consol.c      ****  *
  78:consol.c      ****  * Description:
  79:consol.c      ****  *    A simple implementation of printf that uses a minimum of stack space.
  80:consol.c      ****  *
  81:consol.c      ****  * Params:
  82:consol.c      ****  *    [in] outputFnk - Output function where characters to be printed are 
  83:consol.c      ****  *                      sent 
  84:consol.c      ****  * 
  85:consol.c      ****  *                Params (callback):
  86:consol.c      ****  *                   ch - Character to be printed 
  87:consol.c      ****  *    [in] fmt       - Format string that specifies what to be printed 
  88:consol.c      ****  *    [in] ap        - Structure that hold information about the variable 
  89:consol.c      ****  *                     number of parameters 
  90:consol.c      ****  *
  91:consol.c      ****  ****************************************************************************/
ARM GAS  C:\Users\embedded\AppData\Local\Temp\cctRb3ik.s 			page 3


  92:consol.c      **** static void
  93:consol.c      **** simplePrint(void         (*outputFnk) (char ch),
  94:consol.c      ****             const char * fmt,
  95:consol.c      ****             va_list      ap)
  96:consol.c      **** {
  97:consol.c      ****   char          *p;
  98:consol.c      ****   char           ch;
  99:consol.c      ****   unsigned long  ul;
 100:consol.c      ****   unsigned char  lflag;
 101:consol.c      **** 
 102:consol.c      ****   for (;;)
 103:consol.c      ****   {
 104:consol.c      ****     while ((ch = *fmt++) != '%')
 105:consol.c      ****     {
 106:consol.c      ****       if (ch == '\0')
 107:consol.c      ****         	return;
 108:consol.c      ****       outputFnk(ch);
 109:consol.c      ****     }
 110:consol.c      ****     lflag = 0;
 111:consol.c      **** 
 112:consol.c      **** reswitch:
 113:consol.c      **** 
 114:consol.c      ****     switch (ch = *fmt++)
 115:consol.c      ****     {
 116:consol.c      ****     case '\0':
 117:consol.c      ****       return;
 118:consol.c      **** 
 119:consol.c      ****     case 'l':
 120:consol.c      ****       lflag = 1;
 121:consol.c      ****       goto reswitch;
 122:consol.c      **** 
 123:consol.c      ****     case 'c':
 124:consol.c      **** 	    ch = va_arg(ap, unsigned int);
 125:consol.c      **** 	    outputFnk(ch & 0x7f);
 126:consol.c      **** 	    break;
 127:consol.c      **** 
 128:consol.c      ****     case 's':
 129:consol.c      ****       p = va_arg(ap, char *);
 130:consol.c      ****       while ((ch = *p++) != 0)
 131:consol.c      **** 	    {
 132:consol.c      ****           outputFnk(ch);
 133:consol.c      **** 		}
 134:consol.c      ****       break;
 135:consol.c      **** 
 136:consol.c      ****     case 'd':
 137:consol.c      ****       if (lflag)
 138:consol.c      **** 	    {
 139:consol.c      **** 		  ul = va_arg(ap, int);
 140:consol.c      ****         }
 141:consol.c      **** 		else
 142:consol.c      **** 		{
 143:consol.c      **** 			ul = va_arg(ap, unsigned int);
 144:consol.c      **** 		};
 145:consol.c      ****       if ((long)ul < 0)
 146:consol.c      ****       {
 147:consol.c      ****         outputFnk('-');
 148:consol.c      ****         ul = -(long)ul;
ARM GAS  C:\Users\embedded\AppData\Local\Temp\cctRb3ik.s 			page 4


 149:consol.c      ****       }
 150:consol.c      ****       printNum(outputFnk, ul, 10);
 151:consol.c      ****       break;
 152:consol.c      **** 
 153:consol.c      ****     case 'o':
 154:consol.c      ****       ul = va_arg(ap, unsigned int);
 155:consol.c      ****       printNum(outputFnk, ul, 8);
 156:consol.c      ****       break;
 157:consol.c      **** 
 158:consol.c      ****     case 'u':
 159:consol.c      ****       ul = va_arg(ap, unsigned int);
 160:consol.c      ****       printNum(outputFnk, ul, 10);
 161:consol.c      ****       break;
 162:consol.c      **** 
 163:consol.c      ****     case 'p':
 164:consol.c      ****       outputFnk('0');
 165:consol.c      ****       outputFnk('x');
 166:consol.c      ****       lflag = 1;
 167:consol.c      ****       // fall through
 168:consol.c      **** 
 169:consol.c      ****     case 'x':
 170:consol.c      ****       ul = va_arg(ap, unsigned int);
 171:consol.c      ****       printNum(outputFnk, ul, 16);
 172:consol.c      ****       break;
 173:consol.c      **** 
 174:consol.c      ****     default:
 175:consol.c      **** //      outputFnk('%');
 176:consol.c      ****       if (lflag)
 177:consol.c      ****         outputFnk('l');
 178:consol.c      ****       outputFnk(ch);
 179:consol.c      ****     }
 180:consol.c      ****   }
 181:consol.c      ****   va_end(ap);
 182:consol.c      **** }
 183:consol.c      **** #endif
 184:consol.c      **** 
 185:consol.c      **** /******************************************************************************
 186:consol.c      ****  * Implementation of public functions
 187:consol.c      ****  *****************************************************************************/
 188:consol.c      **** 
 189:consol.c      **** 
 190:consol.c      **** /*****************************************************************************
 191:consol.c      ****  *
 192:consol.c      ****  * Description:
 193:consol.c      ****  *    Initializes the consol channel (init UART, including setting bitrate and 
 194:consol.c      ****  *    GPIO). 
 195:consol.c      ****  *
 196:consol.c      ****  ****************************************************************************/
 197:consol.c      **** void
 198:consol.c      **** consolInit(void)
 199:consol.c      **** {
  24              		.loc 1 199 0
  25              		.cfi_startproc
  26              		@ Function supports interworking.
  27              		@ args = 0, pretend = 0, frame = 0
  28              		@ frame_needed = 0, uses_anonymous_args = 0
  29              		@ link register save eliminated.
ARM GAS  C:\Users\embedded\AppData\Local\Temp\cctRb3ik.s 			page 5


 200:consol.c      **** #if (CONSOL_UART == 0)
 201:consol.c      ****   //enable uart #0 pins in GPIO (P0.0 = TxD0, P0.1 = RxD0)
 202:consol.c      ****   PINSEL0 = (PINSEL0 & 0xfffffff0) | 0x00000005;
  30              		.loc 1 202 0
  31 0000 40209FE5 		ldr	r2, .L2
  32 0004 003092E5 		ldr	r3, [r2]
  33 0008 0F30C3E3 		bic	r3, r3, #15
  34 000c 053083E3 		orr	r3, r3, #5
  35 0010 003082E5 		str	r3, [r2]
 203:consol.c      **** #else
 204:consol.c      ****   //enable uart #1 pins in GPIO (P0.8 = TxD1, P9.1 = RxD1)
 205:consol.c      ****   PINSEL0 = (PINSEL0 & 0xfff0ffff) | 0x00050000;
 206:consol.c      **** #endif
 207:consol.c      **** 
 208:consol.c      ****   //initialize bitrate (by first enable DL registers, DLAB-bit = 1)
 209:consol.c      ****   UART_LCR = 0x80;
  36              		.loc 1 209 0
  37 0014 8020A0E3 		mov	r2, #128
  38 0018 2C309FE5 		ldr	r3, .L2+4
  39 001c 0C2083E5 		str	r2, [r3, #12]
 210:consol.c      ****   UART_DLL = (unsigned char)(UART_DLL_VALUE & 0x00ff);
  40              		.loc 1 210 0
  41 0020 6220A0E3 		mov	r2, #98
 211:consol.c      ****   UART_DLM = (unsigned char)(UART_DLL_VALUE>>8);
 212:consol.c      ****   UART_LCR = 0x00;
 213:consol.c      **** 
 214:consol.c      ****   //initialize LCR: 8N1
 215:consol.c      ****   UART_LCR = 0x03;
  42              		.loc 1 215 0
  43 0024 0310A0E3 		mov	r1, #3
 210:consol.c      ****   UART_DLL = (unsigned char)(UART_DLL_VALUE & 0x00ff);
  44              		.loc 1 210 0
  45 0028 002083E5 		str	r2, [r3]
 211:consol.c      ****   UART_DLM = (unsigned char)(UART_DLL_VALUE>>8);
  46              		.loc 1 211 0
  47 002c 0020A0E3 		mov	r2, #0
  48 0030 042083E5 		str	r2, [r3, #4]
 212:consol.c      **** 
  49              		.loc 1 212 0
  50 0034 0C2083E5 		str	r2, [r3, #12]
  51              		.loc 1 215 0
  52 0038 0C1083E5 		str	r1, [r3, #12]
 216:consol.c      **** 
 217:consol.c      ****   //reset FIFO
 218:consol.c      ****   UART_FCR = 0x00;
  53              		.loc 1 218 0
  54 003c 082083E5 		str	r2, [r3, #8]
 219:consol.c      **** 
 220:consol.c      ****   //clear interrupt bits
 221:consol.c      ****   UART_IER = 0x00;
  55              		.loc 1 221 0
  56 0040 042083E5 		str	r2, [r3, #4]
  57 0044 1EFF2FE1 		bx	lr
  58              	.L3:
  59              		.align	2
  60              	.L2:
  61 0048 00C002E0 		.word	-536690688
ARM GAS  C:\Users\embedded\AppData\Local\Temp\cctRb3ik.s 			page 6


  62 004c 00C000E0 		.word	-536821760
  63              		.cfi_endproc
  64              	.LFE2:
  65              		.size	consolInit, .-consolInit
  66              		.align	2
  67              		.global	consolSendChar
  68              		.type	consolSendChar, %function
  69              	consolSendChar:
  70              	.LFB3:
 222:consol.c      **** }
 223:consol.c      **** 
 224:consol.c      **** /*****************************************************************************
 225:consol.c      ****  *
 226:consol.c      ****  * Description:
 227:consol.c      ****  *    Blocking consol output routine, i.e., the routine waits until the uart 
 228:consol.c      ****  *    buffer is free and then sends the character. 
 229:consol.c      ****  *
 230:consol.c      ****  * Params:
 231:consol.c      ****  *    [in] charToSend - The character to print (to the consol) 
 232:consol.c      ****  *
 233:consol.c      ****  ****************************************************************************/
 234:consol.c      **** void
 235:consol.c      **** consolSendChar(char charToSend)
 236:consol.c      **** {
  71              		.loc 1 236 0
  72              		.cfi_startproc
  73              		@ Function supports interworking.
  74              		@ args = 0, pretend = 0, frame = 0
  75              		@ frame_needed = 0, uses_anonymous_args = 0
  76              		@ link register save eliminated.
  77              	.LVL0:
 237:consol.c      ****   //Wait until THR is empty
 238:consol.c      ****   while(!(UART_LSR & 0x20))
  78              		.loc 1 238 0
  79 0050 14209FE5 		ldr	r2, .L9
  80              	.L5:
  81              		.loc 1 238 0 is_stmt 0 discriminator 1
  82 0054 143092E5 		ldr	r3, [r2, #20]
  83 0058 200013E3 		tst	r3, #32
  84 005c FCFFFF0A 		beq	.L5
 239:consol.c      ****     ;
 240:consol.c      ****   UART_THR = charToSend;
  85              		.loc 1 240 0 is_stmt 1
  86 0060 04309FE5 		ldr	r3, .L9
  87 0064 000083E5 		str	r0, [r3]
  88 0068 1EFF2FE1 		bx	lr
  89              	.L10:
  90              		.align	2
  91              	.L9:
  92 006c 00C000E0 		.word	-536821760
  93              		.cfi_endproc
  94              	.LFE3:
  95              		.size	consolSendChar, .-consolSendChar
  96              		.align	2
  97              		.global	consolSendCh
  98              		.type	consolSendCh, %function
  99              	consolSendCh:
ARM GAS  C:\Users\embedded\AppData\Local\Temp\cctRb3ik.s 			page 7


 100              	.LFB4:
 241:consol.c      **** }
 242:consol.c      **** 
 243:consol.c      **** /*****************************************************************************
 244:consol.c      ****  *
 245:consol.c      ****  * Description:
 246:consol.c      ****  *    Consol output routine that adds extra line feeds at line breaks. 
 247:consol.c      ****  *
 248:consol.c      ****  * Params:
 249:consol.c      ****  *    [in] charToSend - The character to print (to the consol) 
 250:consol.c      ****  *
 251:consol.c      ****  ****************************************************************************/
 252:consol.c      **** void
 253:consol.c      **** consolSendCh(char charToSend)
 254:consol.c      **** {
 101              		.loc 1 254 0
 102              		.cfi_startproc
 103              		@ Function supports interworking.
 104              		@ args = 0, pretend = 0, frame = 0
 105              		@ frame_needed = 0, uses_anonymous_args = 0
 106              	.LVL1:
 255:consol.c      ****   if(charToSend == '\n')
 107              		.loc 1 255 0
 108 0070 0A0050E3 		cmp	r0, #10
 254:consol.c      ****   if(charToSend == '\n')
 109              		.loc 1 254 0
 110 0074 0010A0E1 		mov	r1, r0
 111              		.loc 1 255 0
 112 0078 0400001A 		bne	.L15
 254:consol.c      ****   if(charToSend == '\n')
 113              		.loc 1 254 0
 114 007c 10402DE9 		stmfd	sp!, {r4, lr}
 115              	.LCFI0:
 116              		.cfi_def_cfa_offset 8
 117              		.cfi_offset 4, -8
 118              		.cfi_offset 14, -4
 256:consol.c      ****     consolSendChar('\r');
 119              		.loc 1 256 0
 120 0080 0D00A0E3 		mov	r0, #13
 121              	.LVL2:
 122 0084 FEFFFFEB 		bl	consolSendChar
 123              	.LVL3:
 257:consol.c      **** 
 258:consol.c      ****   consolSendChar(charToSend);
 124              		.loc 1 258 0
 125 0088 0100A0E1 		mov	r0, r1
 259:consol.c      **** }
 126              		.loc 1 259 0
 127 008c 1040BDE8 		ldmfd	sp!, {r4, lr}
 128              	.LCFI1:
 129              		.cfi_restore 14
 130              		.cfi_restore 4
 131              		.cfi_def_cfa_offset 0
 132              	.L15:
 258:consol.c      **** }
 133              		.loc 1 258 0
 134 0090 FEFFFFEA 		b	consolSendChar
ARM GAS  C:\Users\embedded\AppData\Local\Temp\cctRb3ik.s 			page 8


 135              	.LVL4:
 136              		.cfi_endproc
 137              	.LFE4:
 138              		.size	consolSendCh, .-consolSendCh
 139              		.global	__aeabi_uidivmod
 140              		.global	__aeabi_uidiv
 141              		.align	2
 142              		.type	printNum.constprop.1, %function
 143              	printNum.constprop.1:
 144              	.LFB13:
  57:consol.c      ****          unsigned int number,
 145              		.loc 1 57 0
 146              		.cfi_startproc
 147              		@ Function supports interworking.
 148              		@ args = 0, pretend = 0, frame = 56
 149              		@ frame_needed = 0, uses_anonymous_args = 0
 150              	.LVL5:
 151 0094 F0402DE9 		stmfd	sp!, {r4, r5, r6, r7, lr}
 152              	.LCFI2:
 153              		.cfi_def_cfa_offset 20
 154              		.cfi_offset 4, -20
 155              		.cfi_offset 5, -16
 156              		.cfi_offset 6, -12
 157              		.cfi_offset 7, -8
 158              		.cfi_offset 14, -4
 159 0098 3CD04DE2 		sub	sp, sp, #60
 160              	.LCFI3:
 161              		.cfi_def_cfa_offset 80
  57:consol.c      ****          unsigned int number,
 162              		.loc 1 57 0
 163 009c 0050A0E1 		mov	r5, r0
 164 00a0 0160A0E1 		mov	r6, r1
  63:consol.c      **** 	
 165              		.loc 1 63 0
 166 00a4 1120A0E3 		mov	r2, #17
 167 00a8 58109FE5 		ldr	r1, .L22
 168              	.LVL6:
 169 00ac 0D00A0E1 		mov	r0, sp
 170              	.LVL7:
  65:consol.c      **** 	
 171              		.loc 1 65 0
 172 00b0 14408DE2 		add	r4, sp, #20
  63:consol.c      **** 	
 173              		.loc 1 63 0
 174 00b4 FEFFFFEB 		bl	memcpy
 175              	.LVL8:
 176 00b8 0470A0E1 		mov	r7, r4
 177              	.LVL9:
 178              	.L17:
  68:consol.c      **** 	} while (number /= base);
 179              		.loc 1 68 0
 180 00bc 0500A0E1 		mov	r0, r5
 181 00c0 0610A0E1 		mov	r1, r6
 182 00c4 FEFFFFEB 		bl	__aeabi_uidivmod
 183              	.LVL10:
 184 00c8 38308DE2 		add	r3, sp, #56
 185 00cc 011083E0 		add	r1, r3, r1
ARM GAS  C:\Users\embedded\AppData\Local\Temp\cctRb3ik.s 			page 9


 186 00d0 383051E5 		ldrb	r3, [r1, #-56]	@ zero_extendqisi2
  69:consol.c      **** 	
 187              		.loc 1 69 0
 188 00d4 0500A0E1 		mov	r0, r5
 189 00d8 0610A0E1 		mov	r1, r6
  68:consol.c      **** 	} while (number /= base);
 190              		.loc 1 68 0
 191 00dc 0130C4E4 		strb	r3, [r4], #1
 192              	.LVL11:
  69:consol.c      **** 	
 193              		.loc 1 69 0
 194 00e0 FEFFFFEB 		bl	__aeabi_uidiv
 195              	.LVL12:
 196 00e4 005050E2 		subs	r5, r0, #0
 197 00e8 F3FFFF1A 		bne	.L17
 198              	.LVL13:
 199              	.L18:
  72:consol.c      **** 	} while (p > buf);
 200              		.loc 1 72 0
 201 00ec 010074E5 		ldrb	r0, [r4, #-1]!	@ zero_extendqisi2
 202              	.LVL14:
 203 00f0 FEFFFFEB 		bl	consolSendCh
 204              	.LVL15:
  73:consol.c      **** }
 205              		.loc 1 73 0
 206 00f4 070054E1 		cmp	r4, r7
 207 00f8 FBFFFF8A 		bhi	.L18
  74:consol.c      **** 
 208              		.loc 1 74 0
 209 00fc 3CD08DE2 		add	sp, sp, #60
 210              	.LCFI4:
 211              		.cfi_def_cfa_offset 20
 212              		@ sp needed
 213 0100 F040BDE8 		ldmfd	sp!, {r4, r5, r6, r7, lr}
 214              	.LCFI5:
 215              		.cfi_restore 14
 216              		.cfi_restore 7
 217              		.cfi_restore 6
 218              		.cfi_restore 5
 219              		.cfi_restore 4
 220              		.cfi_def_cfa_offset 0
 221              	.LVL16:
 222 0104 1EFF2FE1 		bx	lr
 223              	.L23:
 224              		.align	2
 225              	.L22:
 226 0108 00000000 		.word	.LC0
 227              		.cfi_endproc
 228              	.LFE13:
 229              		.size	printNum.constprop.1, .-printNum.constprop.1
 230              		.align	2
 231              		.global	consolSendString
 232              		.type	consolSendString, %function
 233              	consolSendString:
 234              	.LFB5:
 260:consol.c      **** 
 261:consol.c      **** /*****************************************************************************
ARM GAS  C:\Users\embedded\AppData\Local\Temp\cctRb3ik.s 			page 10


 262:consol.c      ****  *
 263:consol.c      ****  * Description:
 264:consol.c      ****  *    Print string to consol. 
 265:consol.c      ****  *
 266:consol.c      ****  * Params:
 267:consol.c      ****  *    [in] pString - Pointer to string to be printed 
 268:consol.c      ****  *
 269:consol.c      ****  ****************************************************************************/
 270:consol.c      **** void
 271:consol.c      **** consolSendString(char *pString)
 272:consol.c      **** {
 235              		.loc 1 272 0
 236              		.cfi_startproc
 237              		@ Function supports interworking.
 238              		@ args = 0, pretend = 0, frame = 0
 239              		@ frame_needed = 0, uses_anonymous_args = 0
 240              	.LVL17:
 241 010c 10402DE9 		stmfd	sp!, {r4, lr}
 242              	.LCFI6:
 243              		.cfi_def_cfa_offset 8
 244              		.cfi_offset 4, -8
 245              		.cfi_offset 14, -4
 246 0110 014040E2 		sub	r4, r0, #1
 247              	.LVL18:
 248              	.L25:
 273:consol.c      ****   while(*pString)
 249              		.loc 1 273 0
 250 0114 0100F4E5 		ldrb	r0, [r4, #1]!	@ zero_extendqisi2
 251              	.LVL19:
 252 0118 000050E3 		cmp	r0, #0
 253 011c 0100000A 		beq	.L28
 254              	.LVL20:
 274:consol.c      ****     consolSendCh(*pString++);
 255              		.loc 1 274 0
 256 0120 FEFFFFEB 		bl	consolSendCh
 257              	.LVL21:
 258 0124 FAFFFFEA 		b	.L25
 259              	.LVL22:
 260              	.L28:
 275:consol.c      **** }
 261              		.loc 1 275 0
 262 0128 1040BDE8 		ldmfd	sp!, {r4, lr}
 263              	.LCFI7:
 264              		.cfi_restore 14
 265              		.cfi_restore 4
 266              		.cfi_def_cfa_offset 0
 267              	.LVL23:
 268 012c 1EFF2FE1 		bx	lr
 269              		.cfi_endproc
 270              	.LFE5:
 271              		.size	consolSendString, .-consolSendString
 272              		.align	2
 273              		.global	consolSendNumber
 274              		.type	consolSendNumber, %function
 275              	consolSendNumber:
 276              	.LFB6:
 276:consol.c      **** 
ARM GAS  C:\Users\embedded\AppData\Local\Temp\cctRb3ik.s 			page 11


 277:consol.c      **** /*****************************************************************************
 278:consol.c      ****  *
 279:consol.c      ****  * Description:
 280:consol.c      ****  *    Routine for printing integer numbers in various formats. The number is 
 281:consol.c      ****  *    printed in the specified 'base' using exactly 'noDigits', using +/- if 
 282:consol.c      ****  *    signed flag 'sign' is TRUE, and using the character specified in 'pad' 
 283:consol.c      ****  *    to pad extra characters. 
 284:consol.c      ****  *
 285:consol.c      ****  * Params:
 286:consol.c      ****  *    [in] base     - Base to print number in (2-16) 
 287:consol.c      ****  *    [in] noDigits - Number of digits to print (max 32) 
 288:consol.c      ****  *    [in] sign     - Flag if sign is to be used (TRUE), or not (FALSE) 
 289:consol.c      ****  *    [in] pad      - Character to pad any unused positions 
 290:consol.c      ****  *    [in] number   - Signed number to print 
 291:consol.c      ****  *
 292:consol.c      ****  ****************************************************************************/
 293:consol.c      **** void
 294:consol.c      **** consolSendNumber(unsigned char base,
 295:consol.c      ****                  unsigned char noDigits,
 296:consol.c      ****                  unsigned char sign,
 297:consol.c      ****                  char          pad,
 298:consol.c      ****                  int           number)
 299:consol.c      **** {
 277              		.loc 1 299 0
 278              		.cfi_startproc
 279              		@ Function supports interworking.
 280              		@ args = 4, pretend = 0, frame = 40
 281              		@ frame_needed = 0, uses_anonymous_args = 0
 282              	.LVL24:
 283 0130 F04F2DE9 		stmfd	sp!, {r4, r5, r6, r7, r8, r9, r10, fp, lr}
 284              	.LCFI8:
 285              		.cfi_def_cfa_offset 36
 286              		.cfi_offset 4, -36
 287              		.cfi_offset 5, -32
 288              		.cfi_offset 6, -28
 289              		.cfi_offset 7, -24
 290              		.cfi_offset 8, -20
 291              		.cfi_offset 9, -16
 292              		.cfi_offset 10, -12
 293              		.cfi_offset 11, -8
 294              		.cfi_offset 14, -4
 295 0134 0080A0E1 		mov	r8, r0
 300:consol.c      ****   static char    hexChars[16] = "0123456789ABCDEF";
 301:consol.c      ****   char          *pBuf;
 302:consol.c      ****   char           buf[32];
 303:consol.c      ****   unsigned int   numberAbs;
 304:consol.c      ****   unsigned char  count;
 305:consol.c      **** 
 306:consol.c      ****   // prepare negative number
 307:consol.c      ****   if(sign && (number < 0))
 296              		.loc 1 307 0
 297 0138 000092E2 		adds	r0, r2, #0
 298              	.LVL25:
 299 013c 0100A013 		movne	r0, #1
 299:consol.c      ****   static char    hexChars[16] = "0123456789ABCDEF";
 300              		.loc 1 299 0
 301 0140 2CD04DE2 		sub	sp, sp, #44
ARM GAS  C:\Users\embedded\AppData\Local\Temp\cctRb3ik.s 			page 12


 302              	.LCFI9:
 303              		.cfi_def_cfa_offset 80
 299:consol.c      ****   static char    hexChars[16] = "0123456789ABCDEF";
 304              		.loc 1 299 0
 305 0144 50609DE5 		ldr	r6, [sp, #80]
 306 0148 04308DE5 		str	r3, [sp, #4]
 307              		.loc 1 307 0
 308 014c A63F10E0 		ands	r3, r0, r6, lsr #31
 309              	.LVL26:
 308:consol.c      ****     numberAbs = -number;
 309:consol.c      ****   else
 310:consol.c      ****     numberAbs = number;
 310              		.loc 1 310 0
 311 0150 0650A001 		moveq	r5, r6
 311:consol.c      **** 
 312:consol.c      ****   // setup little string buffer
 313:consol.c      ****   count = (noDigits - 1) - (sign ? 1 : 0);
 314:consol.c      ****   pBuf = buf + sizeof(buf);
 315:consol.c      ****   *--pBuf = '\0';
 312              		.loc 1 315 0
 313 0154 0030A0E3 		mov	r3, #0
 313:consol.c      ****   pBuf = buf + sizeof(buf);
 314              		.loc 1 313 0
 315 0158 011041E2 		sub	r1, r1, #1
 316              	.LVL27:
 308:consol.c      ****     numberAbs = -number;
 317              		.loc 1 308 0
 318 015c 00506612 		rsbne	r5, r6, #0
 319              	.LVL28:
 313:consol.c      ****   pBuf = buf + sizeof(buf);
 320              		.loc 1 313 0
 321 0160 010060E0 		rsb	r0, r0, r1
 322 0164 FF4000E2 		and	r4, r0, #255
 323              	.LVL29:
 316:consol.c      **** 
 317:consol.c      ****   // force calculation of first digit
 318:consol.c      ****   // (to prevent zero from not printing at all!!!)
 319:consol.c      ****   *--pBuf = hexChars[(numberAbs % base)];
 324              		.loc 1 319 0
 325 0168 0810A0E1 		mov	r1, r8
 326 016c 0500A0E1 		mov	r0, r5
 307:consol.c      ****     numberAbs = -number;
 327              		.loc 1 307 0
 328 0170 0270A0E1 		mov	r7, r2
 315:consol.c      **** 
 329              		.loc 1 315 0
 330 0174 2730CDE5 		strb	r3, [sp, #39]
 331              	.LVL30:
 332              		.loc 1 319 0
 333 0178 FEFFFFEB 		bl	__aeabi_uidivmod
 334              	.LVL31:
 335 017c A8B09FE5 		ldr	fp, .L45
 336 0180 0130DBE7 		ldrb	r3, [fp, r1]	@ zero_extendqisi2
 320:consol.c      ****   numberAbs /= base;
 337              		.loc 1 320 0
 338 0184 0500A0E1 		mov	r0, r5
 339 0188 0810A0E1 		mov	r1, r8
ARM GAS  C:\Users\embedded\AppData\Local\Temp\cctRb3ik.s 			page 13


 319:consol.c      ****   numberAbs /= base;
 340              		.loc 1 319 0
 341 018c 2630CDE5 		strb	r3, [sp, #38]
 342              		.loc 1 320 0
 343 0190 FEFFFFEB 		bl	__aeabi_uidiv
 344              	.LVL32:
 313:consol.c      ****   pBuf = buf + sizeof(buf);
 345              		.loc 1 313 0
 346 0194 0450A0E1 		mov	r5, r4
 347              	.LVL33:
 348              		.loc 1 320 0
 349 0198 00A0A0E1 		mov	r10, r0
 350              	.LVL34:
 351 019c 25908DE2 		add	r9, sp, #37
 352              	.LVL35:
 353              	.L32:
 321:consol.c      **** 
 322:consol.c      ****   // calculate remaining digits
 323:consol.c      ****   while(count--)
 354              		.loc 1 323 0
 355 01a0 015045E2 		sub	r5, r5, #1
 356              	.LVL36:
 357 01a4 FF5005E2 		and	r5, r5, #255
 358              	.LVL37:
 359 01a8 FF0055E3 		cmp	r5, #255
 360 01ac 0E00000A 		beq	.L44
 324:consol.c      ****   {
 325:consol.c      ****     if(numberAbs != 0)
 361              		.loc 1 325 0
 362 01b0 00005AE3 		cmp	r10, #0
 326:consol.c      ****     {
 327:consol.c      ****       //calculate next digit
 328:consol.c      ****       *--pBuf = hexChars[(numberAbs % base)];
 329:consol.c      ****       numberAbs /= base;
 330:consol.c      ****     }
 331:consol.c      ****     else
 332:consol.c      ****       // no more digits left, pad out to desired length
 333:consol.c      ****       *--pBuf = pad;
 363              		.loc 1 333 0
 364 01b4 0430DD05 		ldreqb	r3, [sp, #4]	@ zero_extendqisi2
 365 01b8 0030C905 		streqb	r3, [r9]
 325:consol.c      ****     {
 366              		.loc 1 325 0
 367 01bc 0800000A 		beq	.L34
 368              	.LVL38:
 328:consol.c      ****       numberAbs /= base;
 369              		.loc 1 328 0
 370 01c0 0A00A0E1 		mov	r0, r10
 371 01c4 0810A0E1 		mov	r1, r8
 372 01c8 FEFFFFEB 		bl	__aeabi_uidivmod
 373              	.LVL39:
 374 01cc 0120DBE7 		ldrb	r2, [fp, r1]	@ zero_extendqisi2
 329:consol.c      ****     }
 375              		.loc 1 329 0
 376 01d0 0A00A0E1 		mov	r0, r10
 377 01d4 0810A0E1 		mov	r1, r8
 328:consol.c      ****       numberAbs /= base;
ARM GAS  C:\Users\embedded\AppData\Local\Temp\cctRb3ik.s 			page 14


 378              		.loc 1 328 0
 379 01d8 0020C9E5 		strb	r2, [r9]
 329:consol.c      ****     }
 380              		.loc 1 329 0
 381 01dc FEFFFFEB 		bl	__aeabi_uidiv
 382              	.LVL40:
 383 01e0 00A0A0E1 		mov	r10, r0
 384              	.LVL41:
 385              	.L34:
 386 01e4 019049E2 		sub	r9, r9, #1
 387 01e8 ECFFFFEA 		b	.L32
 388              	.LVL42:
 389              	.L44:
 390 01ec 26008DE2 		add	r0, sp, #38
 391              	.LVL43:
 334:consol.c      ****   }
 335:consol.c      **** 
 336:consol.c      ****   // apply signed notation if requested
 337:consol.c      ****   if(sign)
 392              		.loc 1 337 0
 393 01f0 000057E3 		cmp	r7, #0
 394 01f4 000064E0 		rsb	r0, r4, r0
 395 01f8 0700000A 		beq	.L36
 338:consol.c      ****   {
 339:consol.c      ****     if(number < 0)
 396              		.loc 1 339 0
 397 01fc 000056E3 		cmp	r6, #0
 398 0200 013040E2 		sub	r3, r0, #1
 340:consol.c      ****       *--pBuf = '-';
 399              		.loc 1 340 0
 400 0204 2D20A0B3 		movlt	r2, #45
 339:consol.c      ****       *--pBuf = '-';
 401              		.loc 1 339 0
 402 0208 010000BA 		blt	.L43
 403              	.LVL44:
 341:consol.c      ****     else if(number > 0)
 342:consol.c      ****        *--pBuf = '+';
 404              		.loc 1 342 0
 405 020c 2B20A013 		movne	r2, #43
 343:consol.c      ****     else
 344:consol.c      ****        *--pBuf = ' ';
 406              		.loc 1 344 0
 407 0210 2020A003 		moveq	r2, #32
 408              	.LVL45:
 409              	.L43:
 410 0214 012040E5 		strb	r2, [r0, #-1]
 411 0218 0300A0E1 		mov	r0, r3
 412              	.L36:
 413              	.LVL46:
 345:consol.c      ****   }
 346:consol.c      **** 
 347:consol.c      ****   // print the string right-justified
 348:consol.c      ****   consolSendString(pBuf);
 414              		.loc 1 348 0
 415 021c FEFFFFEB 		bl	consolSendString
 416              	.LVL47:
 349:consol.c      **** }
ARM GAS  C:\Users\embedded\AppData\Local\Temp\cctRb3ik.s 			page 15


 417              		.loc 1 349 0
 418 0220 2CD08DE2 		add	sp, sp, #44
 419              	.LCFI10:
 420              		.cfi_def_cfa_offset 36
 421              		@ sp needed
 422 0224 F04FBDE8 		ldmfd	sp!, {r4, r5, r6, r7, r8, r9, r10, fp, lr}
 423              	.LCFI11:
 424              		.cfi_restore 14
 425              		.cfi_restore 11
 426              		.cfi_restore 10
 427              		.cfi_restore 9
 428              		.cfi_restore 8
 429              		.cfi_restore 7
 430              		.cfi_restore 6
 431              		.cfi_restore 5
 432              		.cfi_restore 4
 433              		.cfi_def_cfa_offset 0
 434              	.LVL48:
 435 0228 1EFF2FE1 		bx	lr
 436              	.L46:
 437              		.align	2
 438              	.L45:
 439 022c 00000000 		.word	.LANCHOR0
 440              		.cfi_endproc
 441              	.LFE6:
 442              		.size	consolSendNumber, .-consolSendNumber
 443              		.align	2
 444              		.global	simplePrintf
 445              		.type	simplePrintf, %function
 446              	simplePrintf:
 447              	.LFB7:
 350:consol.c      **** 
 351:consol.c      **** #if (CONSOLE_API_PRINTF == 1)  //OWN_PRINTF
 352:consol.c      **** /*****************************************************************************
 353:consol.c      ****  *
 354:consol.c      ****  * Description:
 355:consol.c      ****  *    Simple implementation of printf 
 356:consol.c      ****  *
 357:consol.c      ****  * Params:
 358:consol.c      ****  *    [in] fmt - Format string that specifies what to be printed 
 359:consol.c      ****  *    [in] ... - Variable number of parameters to match format string 
 360:consol.c      ****  *
 361:consol.c      ****  ****************************************************************************/
 362:consol.c      **** void
 363:consol.c      **** simplePrintf(const char * fmt,
 364:consol.c      ****              ...          )
 365:consol.c      **** {
 448              		.loc 1 365 0
 449              		.cfi_startproc
 450              		@ Function supports interworking.
 451              		@ args = 4, pretend = 16, frame = 8
 452              		@ frame_needed = 0, uses_anonymous_args = 1
 453              	.LVL49:
 454 0230 0F002DE9 		stmfd	sp!, {r0, r1, r2, r3}
 455              	.LCFI12:
 456              		.cfi_def_cfa_offset 16
 457              		.cfi_offset 0, -16
ARM GAS  C:\Users\embedded\AppData\Local\Temp\cctRb3ik.s 			page 16


 458              		.cfi_offset 1, -12
 459              		.cfi_offset 2, -8
 460              		.cfi_offset 3, -4
 461 0234 73402DE9 		stmfd	sp!, {r0, r1, r4, r5, r6, lr}
 462              	.LCFI13:
 463              		.cfi_def_cfa_offset 40
 464              		.cfi_offset 4, -32
 465              		.cfi_offset 5, -28
 466              		.cfi_offset 6, -24
 467              		.cfi_offset 14, -20
 366:consol.c      **** 	va_list ap;
 367:consol.c      **** 
 368:consol.c      **** 	va_start(ap, fmt);
 468              		.loc 1 368 0
 469 0238 1C408DE2 		add	r4, sp, #28
 365:consol.c      **** 	va_list ap;
 470              		.loc 1 365 0
 471 023c 18609DE5 		ldr	r6, [sp, #24]
 472              		.loc 1 368 0
 473 0240 04408DE5 		str	r4, [sp, #4]
 474              	.LVL50:
 475              	.L49:
 476              	.LBB12:
 477              	.LBB13:
 104:consol.c      ****     {
 478              		.loc 1 104 0
 479 0244 0100D6E4 		ldrb	r0, [r6], #1	@ zero_extendqisi2
 480              	.LVL51:
 481 0248 250050E3 		cmp	r0, #37
 482 024c 0030A003 		moveq	r3, #0
 483 0250 0C00000A 		beq	.L52
 106:consol.c      ****         	return;
 484              		.loc 1 106 0
 485 0254 000050E3 		cmp	r0, #0
 486 0258 4900000A 		beq	.L47
 108:consol.c      ****     }
 487              		.loc 1 108 0
 488 025c FEFFFFEB 		bl	consolSendCh
 489              	.LVL52:
 490 0260 F7FFFFEA 		b	.L49
 491              	.LVL53:
 492              	.L88:
 114:consol.c      ****     {
 493              		.loc 1 114 0
 494 0264 0E00008A 		bhi	.L55
 495 0268 630051E3 		cmp	r1, #99
 496 026c 1B00000A 		beq	.L56
 497 0270 0800009A 		bls	.L87
 498 0274 640051E3 		cmp	r1, #100
 499 0278 2500000A 		beq	.L58
 500 027c 6C0051E3 		cmp	r1, #108
 501 0280 3800001A 		bne	.L53
 120:consol.c      ****       goto reswitch;
 502              		.loc 1 120 0
 503 0284 0130A0E3 		mov	r3, #1
 504              	.LVL54:
 505              	.L52:
ARM GAS  C:\Users\embedded\AppData\Local\Temp\cctRb3ik.s 			page 17


 114:consol.c      ****     {
 506              		.loc 1 114 0
 507 0288 0110D6E4 		ldrb	r1, [r6], #1	@ zero_extendqisi2
 508              	.LVL55:
 509 028c 6F0051E3 		cmp	r1, #111
 510 0290 F3FFFF1A 		bne	.L88
 511 0294 280000EA 		b	.L54
 512              	.L87:
 513 0298 000051E3 		cmp	r1, #0
 514 029c 3800000A 		beq	.L47
 515 02a0 300000EA 		b	.L53
 516              	.L55:
 517 02a4 730051E3 		cmp	r1, #115
 518 02a8 1200000A 		beq	.L59
 519 02ac 0600008A 		bhi	.L60
 520 02b0 700051E3 		cmp	r1, #112
 521 02b4 2B00001A 		bne	.L53
 522              	.LVL56:
 523              	.LBB14:
 524              	.LBB15:
 258:consol.c      **** }
 525              		.loc 1 258 0
 526 02b8 3000A0E3 		mov	r0, #48
 527 02bc FEFFFFEB 		bl	consolSendChar
 528              	.LVL57:
 529              	.LBE15:
 530              	.LBE14:
 531              	.LBB16:
 532              	.LBB17:
 533 02c0 7800A0E3 		mov	r0, #120
 534 02c4 FEFFFFEB 		bl	consolSendChar
 535              	.LVL58:
 536 02c8 210000EA 		b	.L63
 537              	.LVL59:
 538              	.L60:
 539              	.LBE17:
 540              	.LBE16:
 114:consol.c      ****     {
 541              		.loc 1 114 0
 542 02cc 750051E3 		cmp	r1, #117
 543 02d0 1C00000A 		beq	.L62
 544 02d4 780051E3 		cmp	r1, #120
 545 02d8 1D00000A 		beq	.L63
 546 02dc 210000EA 		b	.L53
 547              	.L56:
 125:consol.c      **** 	    break;
 548              		.loc 1 125 0
 549 02e0 000094E5 		ldr	r0, [r4]
 550 02e4 7F0000E2 		and	r0, r0, #127
 124:consol.c      **** 	    outputFnk(ch & 0x7f);
 551              		.loc 1 124 0
 552 02e8 045084E2 		add	r5, r4, #4
 553              	.LVL60:
 125:consol.c      **** 	    break;
 554              		.loc 1 125 0
 555 02ec FEFFFFEB 		bl	consolSendCh
 556              	.LVL61:
ARM GAS  C:\Users\embedded\AppData\Local\Temp\cctRb3ik.s 			page 18


 557              	.L64:
 178:consol.c      ****     }
 558              		.loc 1 178 0
 559 02f0 0540A0E1 		mov	r4, r5
 560              	.LVL62:
 561 02f4 D2FFFFEA 		b	.L49
 562              	.LVL63:
 563              	.L59:
 129:consol.c      ****       while ((ch = *p++) != 0)
 564              		.loc 1 129 0
 565 02f8 045084E2 		add	r5, r4, #4
 566              	.LVL64:
 567 02fc 004094E5 		ldr	r4, [r4]
 568              	.LVL65:
 569              	.L65:
 130:consol.c      **** 	    {
 570              		.loc 1 130 0
 571 0300 0100D4E4 		ldrb	r0, [r4], #1	@ zero_extendqisi2
 572              	.LVL66:
 573 0304 000050E3 		cmp	r0, #0
 574 0308 F8FFFF0A 		beq	.L64
 132:consol.c      **** 		}
 575              		.loc 1 132 0
 576 030c FEFFFFEB 		bl	consolSendCh
 577              	.LVL67:
 578 0310 FAFFFFEA 		b	.L65
 579              	.LVL68:
 580              	.L58:
 581 0314 045084E2 		add	r5, r4, #4
 139:consol.c      ****         }
 582              		.loc 1 139 0
 583 0318 004094E5 		ldr	r4, [r4]
 584              	.LVL69:
 145:consol.c      ****       {
 585              		.loc 1 145 0
 586 031c 000054E3 		cmp	r4, #0
 587 0320 020000AA 		bge	.L69
 588              	.LVL70:
 589              	.LBB18:
 590              	.LBB19:
 258:consol.c      **** }
 591              		.loc 1 258 0
 592 0324 2D00A0E3 		mov	r0, #45
 593 0328 FEFFFFEB 		bl	consolSendChar
 594              	.LVL71:
 595              	.LBE19:
 596              	.LBE18:
 148:consol.c      ****       }
 597              		.loc 1 148 0
 598 032c 004064E2 		rsb	r4, r4, #0
 599              	.LVL72:
 600              	.L69:
 150:consol.c      ****       break;
 601              		.loc 1 150 0
 602 0330 0A10A0E3 		mov	r1, #10
 603 0334 0400A0E1 		mov	r0, r4
 604 0338 080000EA 		b	.L85
ARM GAS  C:\Users\embedded\AppData\Local\Temp\cctRb3ik.s 			page 19


 605              	.LVL73:
 606              	.L54:
 154:consol.c      ****       printNum(outputFnk, ul, 8);
 607              		.loc 1 154 0
 608 033c 045084E2 		add	r5, r4, #4
 609              	.LVL74:
 155:consol.c      ****       break;
 610              		.loc 1 155 0
 611 0340 0810A0E3 		mov	r1, #8
 612              	.LVL75:
 613 0344 040000EA 		b	.L86
 614              	.LVL76:
 615              	.L62:
 159:consol.c      ****       printNum(outputFnk, ul, 10);
 616              		.loc 1 159 0
 617 0348 045084E2 		add	r5, r4, #4
 618              	.LVL77:
 160:consol.c      ****       break;
 619              		.loc 1 160 0
 620 034c 0A10A0E3 		mov	r1, #10
 621              	.LVL78:
 622 0350 010000EA 		b	.L86
 623              	.LVL79:
 624              	.L63:
 171:consol.c      ****       break;
 625              		.loc 1 171 0
 626 0354 1010A0E3 		mov	r1, #16
 170:consol.c      ****       printNum(outputFnk, ul, 16);
 627              		.loc 1 170 0
 628 0358 045084E2 		add	r5, r4, #4
 629              	.LVL80:
 630              	.L86:
 171:consol.c      ****       break;
 631              		.loc 1 171 0
 632 035c 000094E5 		ldr	r0, [r4]
 633              	.LVL81:
 634              	.L85:
 635 0360 4BFFFFEB 		bl	printNum.constprop.1
 636              	.LVL82:
 637 0364 E1FFFFEA 		b	.L64
 638              	.LVL83:
 639              	.L53:
 176:consol.c      ****         outputFnk('l');
 640              		.loc 1 176 0
 641 0368 000053E3 		cmp	r3, #0
 642              	.LVL84:
 643              	.LBB20:
 644              	.LBB21:
 258:consol.c      **** }
 645              		.loc 1 258 0
 646 036c 6C00A013 		movne	r0, #108
 647 0370 FEFFFF1B 		blne	consolSendChar
 648              	.LVL85:
 649              	.L70:
 650              	.LBE21:
 651              	.LBE20:
 178:consol.c      ****     }
ARM GAS  C:\Users\embedded\AppData\Local\Temp\cctRb3ik.s 			page 20


 652              		.loc 1 178 0
 653 0374 0100A0E1 		mov	r0, r1
 654 0378 FEFFFFEB 		bl	consolSendCh
 655              	.LVL86:
 656 037c 0450A0E1 		mov	r5, r4
 657 0380 DAFFFFEA 		b	.L64
 658              	.LVL87:
 659              	.L47:
 660              	.LBE13:
 661              	.LBE12:
 369:consol.c      **** 	simplePrint(consolSendCh, fmt, ap);
 370:consol.c      **** 	va_end(ap);
 371:consol.c      **** }
 662              		.loc 1 371 0
 663 0384 08D08DE2 		add	sp, sp, #8
 664              	.LCFI14:
 665              		.cfi_def_cfa_offset 32
 666              		@ sp needed
 667 0388 7040BDE8 		ldmfd	sp!, {r4, r5, r6, lr}
 668              	.LCFI15:
 669              		.cfi_restore 14
 670              		.cfi_restore 6
 671              		.cfi_restore 5
 672              		.cfi_restore 4
 673              		.cfi_def_cfa_offset 16
 674 038c 10D08DE2 		add	sp, sp, #16
 675              	.LCFI16:
 676              		.cfi_restore 3
 677              		.cfi_restore 2
 678              		.cfi_restore 1
 679              		.cfi_restore 0
 680              		.cfi_def_cfa_offset 0
 681 0390 1EFF2FE1 		bx	lr
 682              		.cfi_endproc
 683              	.LFE7:
 684              		.size	simplePrintf, .-simplePrintf
 685              		.align	2
 686              		.global	consolGetCh
 687              		.type	consolGetCh, %function
 688              	consolGetCh:
 689              	.LFB8:
 372:consol.c      **** #endif
 373:consol.c      **** 
 374:consol.c      **** 
 375:consol.c      **** #if (CONSOLE_API_SCANF == 1)  //SIMPLE
 376:consol.c      **** 
 377:consol.c      **** /*****************************************************************************
 378:consol.c      ****  *
 379:consol.c      ****  * Description:
 380:consol.c      ****  *    Wait (blocking call) for a character to be received. 
 381:consol.c      ****  *
 382:consol.c      ****  * Returns:
 383:consol.c      ****  *    char - Received character
 384:consol.c      ****  *
 385:consol.c      ****  ****************************************************************************/
 386:consol.c      **** char
 387:consol.c      **** consolGetCh(void)
ARM GAS  C:\Users\embedded\AppData\Local\Temp\cctRb3ik.s 			page 21


 388:consol.c      **** {
 690              		.loc 1 388 0
 691              		.cfi_startproc
 692              		@ Function supports interworking.
 693              		@ args = 0, pretend = 0, frame = 0
 694              		@ frame_needed = 0, uses_anonymous_args = 0
 695              		@ link register save eliminated.
 389:consol.c      ****   while(!(UART_LSR & (0x01<<0)))
 696              		.loc 1 389 0
 697 0394 18209FE5 		ldr	r2, .L93
 698              	.L90:
 699              		.loc 1 389 0 is_stmt 0 discriminator 1
 700 0398 143092E5 		ldr	r3, [r2, #20]
 701 039c 010013E3 		tst	r3, #1
 702 03a0 FCFFFF0A 		beq	.L90
 390:consol.c      ****     ;
 391:consol.c      ****   return UART_RBR;
 703              		.loc 1 391 0 is_stmt 1
 704 03a4 08309FE5 		ldr	r3, .L93
 705 03a8 000093E5 		ldr	r0, [r3]
 706 03ac FF0000E2 		and	r0, r0, #255
 392:consol.c      **** }
 707              		.loc 1 392 0
 708 03b0 1EFF2FE1 		bx	lr
 709              	.L94:
 710              		.align	2
 711              	.L93:
 712 03b4 00C000E0 		.word	-536821760
 713              		.cfi_endproc
 714              	.LFE8:
 715              		.size	consolGetCh, .-consolGetCh
 716              		.align	2
 717              		.global	consolGetChar
 718              		.type	consolGetChar, %function
 719              	consolGetChar:
 720              	.LFB9:
 393:consol.c      **** 
 394:consol.c      **** /*****************************************************************************
 395:consol.c      ****  *
 396:consol.c      ****  * Description:
 397:consol.c      ****  *    Check (non-blocking call) if a character has been received. 
 398:consol.c      ****  *
 399:consol.c      ****  * Params:
 400:consol.c      ****  *    [inout] pChar - pointer to where to place received character
 401:consol.c      ****  *
 402:consol.c      ****  * Returns:
 403:consol.c      ****  *    char - TRUE if character has been received (placed at pointed location)
 404:consol.c      ****  *           FALSE if no character has been received.
 405:consol.c      ****  *
 406:consol.c      ****  ****************************************************************************/
 407:consol.c      **** char
 408:consol.c      **** consolGetChar(char *pChar)
 409:consol.c      **** {
 721              		.loc 1 409 0
 722              		.cfi_startproc
 723              		@ Function supports interworking.
 724              		@ args = 0, pretend = 0, frame = 0
ARM GAS  C:\Users\embedded\AppData\Local\Temp\cctRb3ik.s 			page 22


 725              		@ frame_needed = 0, uses_anonymous_args = 0
 726              		@ link register save eliminated.
 727              	.LVL88:
 410:consol.c      ****   if((UART_LSR & 0x01) != 0x00)
 728              		.loc 1 410 0
 729 03b8 18209FE5 		ldr	r2, .L98
 730 03bc 143092E5 		ldr	r3, [r2, #20]
 731 03c0 013013E2 		ands	r3, r3, #1
 411:consol.c      ****   {
 412:consol.c      ****     *pChar = UART_RBR;
 732              		.loc 1 412 0
 733 03c4 00309215 		ldrne	r3, [r2]
 734 03c8 0030C015 		strneb	r3, [r0]
 413:consol.c      ****     return 1;
 735              		.loc 1 413 0
 736 03cc 0100A013 		movne	r0, #1
 737              	.LVL89:
 414:consol.c      ****   }
 415:consol.c      ****   return 0;
 738              		.loc 1 415 0
 739 03d0 0300A001 		moveq	r0, r3
 416:consol.c      **** }
 740              		.loc 1 416 0
 741 03d4 1EFF2FE1 		bx	lr
 742              	.L99:
 743              		.align	2
 744              	.L98:
 745 03d8 00C000E0 		.word	-536821760
 746              		.cfi_endproc
 747              	.LFE9:
 748              		.size	consolGetChar, .-consolGetChar
 749              		.align	2
 750              		.global	consolGetString
 751              		.type	consolGetString, %function
 752              	consolGetString:
 753              	.LFB10:
 417:consol.c      **** 
 418:consol.c      **** /*****************************************************************************
 419:consol.c      ****  *
 420:consol.c      ****  * Description:
 421:consol.c      ****  *    Receive (blocking call) a string (end with '\r'). 
 422:consol.c      ****  *
 423:consol.c      ****  * Params:
 424:consol.c      ****  *    [inout] pString - pointer to return the received string
 425:consol.c      ****  *
 426:consol.c      ****  ****************************************************************************/
 427:consol.c      **** void
 428:consol.c      **** consolGetString(char *pString)
 429:consol.c      **** {
 754              		.loc 1 429 0
 755              		.cfi_startproc
 756              		@ Function supports interworking.
 757              		@ args = 0, pretend = 0, frame = 0
 758              		@ frame_needed = 0, uses_anonymous_args = 0
 759              	.LVL90:
 760 03dc 70402DE9 		stmfd	sp!, {r4, r5, r6, lr}
 761              	.LCFI17:
ARM GAS  C:\Users\embedded\AppData\Local\Temp\cctRb3ik.s 			page 23


 762              		.cfi_def_cfa_offset 16
 763              		.cfi_offset 4, -16
 764              		.cfi_offset 5, -12
 765              		.cfi_offset 6, -8
 766              		.cfi_offset 14, -4
 767              		.loc 1 429 0
 768 03e0 0050A0E1 		mov	r5, r0
 430:consol.c      ****   char *pString2;
 431:consol.c      ****   char rxChar;
 432:consol.c      **** 
 433:consol.c      ****   pString2 = pString;
 434:consol.c      ****   while((rxChar = consolGetCh()) != '\r')
 769              		.loc 1 434 0
 770 03e4 0040A0E1 		mov	r4, r0
 771              	.LVL91:
 772              	.L101:
 773 03e8 FEFFFFEB 		bl	consolGetCh
 774              	.LVL92:
 775 03ec 0D0050E3 		cmp	r0, #13
 776 03f0 0030A0E1 		mov	r3, r0
 777              	.LVL93:
 778 03f4 0C00000A 		beq	.L106
 435:consol.c      ****   {
 436:consol.c      ****     if (rxChar == '\b')
 779              		.loc 1 436 0
 780 03f8 080053E3 		cmp	r3, #8
 781 03fc 0500001A 		bne	.L102
 437:consol.c      ****     {
 438:consol.c      ****       if ((int)pString2 < (int)pString)
 782              		.loc 1 438 0
 783 0400 040055E1 		cmp	r5, r4
 784 0404 F7FFFFAA 		bge	.L101
 439:consol.c      ****       {
 440:consol.c      ****         consolSendString("\b \b");
 785              		.loc 1 440 0
 786 0408 30009FE5 		ldr	r0, .L107
 787              	.LVL94:
 788 040c FEFFFFEB 		bl	consolSendString
 789              	.LVL95:
 441:consol.c      ****         pString--;
 790              		.loc 1 441 0
 791 0410 014044E2 		sub	r4, r4, #1
 792              	.LVL96:
 793 0414 F3FFFFEA 		b	.L101
 794              	.LVL97:
 795              	.L102:
 442:consol.c      ****       }
 443:consol.c      ****     }
 444:consol.c      ****     else
 445:consol.c      ****     {
 446:consol.c      ****       *pString++ = rxChar;
 796              		.loc 1 446 0
 797 0418 0030C4E5 		strb	r3, [r4]
 798 041c 016084E2 		add	r6, r4, #1
 799              	.LVL98:
 447:consol.c      ****       consolSendCh(rxChar);
 800              		.loc 1 447 0
ARM GAS  C:\Users\embedded\AppData\Local\Temp\cctRb3ik.s 			page 24


 801 0420 FEFFFFEB 		bl	consolSendCh
 802              	.LVL99:
 446:consol.c      ****       consolSendCh(rxChar);
 803              		.loc 1 446 0
 804 0424 0640A0E1 		mov	r4, r6
 805 0428 EEFFFFEA 		b	.L101
 806              	.LVL100:
 807              	.L106:
 448:consol.c      ****     }
 449:consol.c      ****   }
 450:consol.c      ****   *pString = '\0';
 808              		.loc 1 450 0
 809 042c 0030A0E3 		mov	r3, #0
 810 0430 0030C4E5 		strb	r3, [r4]
 451:consol.c      ****   consolSendCh('\n');
 811              		.loc 1 451 0
 812 0434 0A00A0E3 		mov	r0, #10
 813              	.LVL101:
 452:consol.c      **** }
 814              		.loc 1 452 0
 815 0438 7040BDE8 		ldmfd	sp!, {r4, r5, r6, lr}
 816              	.LCFI18:
 817              		.cfi_restore 14
 818              		.cfi_restore 6
 819              		.cfi_restore 5
 820              		.cfi_restore 4
 821              		.cfi_def_cfa_offset 0
 822              	.LVL102:
 451:consol.c      ****   consolSendCh('\n');
 823              		.loc 1 451 0
 824 043c FEFFFFEA 		b	consolSendCh
 825              	.LVL103:
 826              	.L108:
 827              		.align	2
 828              	.L107:
 829 0440 11000000 		.word	.LC1
 830              		.cfi_endproc
 831              	.LFE10:
 832              		.size	consolGetString, .-consolGetString
 833              		.align	2
 834              		.global	consolGetIntNum
 835              		.type	consolGetIntNum, %function
 836              	consolGetIntNum:
 837              	.LFB11:
 453:consol.c      **** 
 454:consol.c      **** /*****************************************************************************
 455:consol.c      ****  *
 456:consol.c      ****  * Description:
 457:consol.c      ****  *    Receive (blocking call) a number (end with '\r').
 458:consol.c      ****  *    Accepts hexadecimal (radix 16) and integer (radix 10) numbers.
 459:consol.c      ****  *
 460:consol.c      ****  * Returns:
 461:consol.c      ****  *    int - the received number
 462:consol.c      ****  *
 463:consol.c      ****  ****************************************************************************/
 464:consol.c      **** int
 465:consol.c      **** consolGetIntNum(void)
ARM GAS  C:\Users\embedded\AppData\Local\Temp\cctRb3ik.s 			page 25


 466:consol.c      **** {
 838              		.loc 1 466 0
 839              		.cfi_startproc
 840              		@ Function supports interworking.
 841              		@ args = 0, pretend = 0, frame = 32
 842              		@ frame_needed = 0, uses_anonymous_args = 0
 843 0444 70402DE9 		stmfd	sp!, {r4, r5, r6, lr}
 844              	.LCFI19:
 845              		.cfi_def_cfa_offset 16
 846              		.cfi_offset 4, -16
 847              		.cfi_offset 5, -12
 848              		.cfi_offset 6, -8
 849              		.cfi_offset 14, -4
 850 0448 20D04DE2 		sub	sp, sp, #32
 851              	.LCFI20:
 852              		.cfi_def_cfa_offset 48
 853              	.LVL104:
 467:consol.c      ****   char  abStr[30];
 468:consol.c      ****   char *pString = abStr;
 469:consol.c      ****   int   wBase=10;
 470:consol.c      ****   int   wMinus=0;
 471:consol.c      ****   int   wLastIndex;
 472:consol.c      ****   int   wResult=0;
 473:consol.c      ****   int   wI;
 474:consol.c      ****         
 475:consol.c      ****   consolGetString(pString);
 854              		.loc 1 475 0
 855 044c 0D00A0E1 		mov	r0, sp
 856 0450 FEFFFFEB 		bl	consolGetString
 857              	.LVL105:
 476:consol.c      ****         
 477:consol.c      ****   if(pString[0] == '-')
 858              		.loc 1 477 0
 859 0454 0030DDE5 		ldrb	r3, [sp]	@ zero_extendqisi2
 860 0458 2D0053E3 		cmp	r3, #45
 861              	.LVL106:
 478:consol.c      ****   {
 479:consol.c      ****     wMinus = 1;
 862              		.loc 1 479 0
 863 045c 0150A003 		moveq	r5, #1
 480:consol.c      ****     pString++;
 864              		.loc 1 480 0
 865 0460 0130DD05 		ldreqb	r3, [sp, #1]	@ zero_extendqisi2
 866 0464 05408D00 		addeq	r4, sp, r5
 470:consol.c      ****   int   wLastIndex;
 867              		.loc 1 470 0
 868 0468 0050A013 		movne	r5, #0
 468:consol.c      ****   int   wBase=10;
 869              		.loc 1 468 0
 870 046c 0D40A011 		movne	r4, sp
 871              	.LVL107:
 481:consol.c      ****   }
 482:consol.c      **** 
 483:consol.c      ****   if(pString[0] == '0' && (pString[1] == 'x' || pString[1] == 'X'))
 872              		.loc 1 483 0
 873 0470 300053E3 		cmp	r3, #48
 874 0474 0500001A 		bne	.L123
ARM GAS  C:\Users\embedded\AppData\Local\Temp\cctRb3ik.s 			page 26


 875              		.loc 1 483 0 is_stmt 0 discriminator 1
 876 0478 0130D4E5 		ldrb	r3, [r4, #1]	@ zero_extendqisi2
 877 047c DF3003E2 		and	r3, r3, #223
 878 0480 580053E3 		cmp	r3, #88
 484:consol.c      ****   {
 485:consol.c      ****     wBase = 16;
 486:consol.c      ****     pString += 2;
 879              		.loc 1 486 0 is_stmt 1 discriminator 1
 880 0484 02408402 		addeq	r4, r4, #2
 485:consol.c      ****     pString += 2;
 881              		.loc 1 485 0 discriminator 1
 882 0488 1060A003 		moveq	r6, #16
 483:consol.c      ****   {
 883              		.loc 1 483 0 discriminator 1
 884 048c 0000000A 		beq	.L111
 885              	.L123:
 469:consol.c      ****   int   wMinus=0;
 886              		.loc 1 469 0
 887 0490 0A60A0E3 		mov	r6, #10
 888              	.L111:
 889              	.LVL108:
 487:consol.c      ****   }
 488:consol.c      **** 
 489:consol.c      ****   wLastIndex = strlen(pString) - 1;
 890              		.loc 1 489 0
 891 0494 0400A0E1 		mov	r0, r4
 892 0498 FEFFFFEB 		bl	strlen
 893              	.LVL109:
 894 049c 013040E2 		sub	r3, r0, #1
 895              	.LVL110:
 490:consol.c      ****   if(pString[wLastIndex] == 'h' || pString[wLastIndex] == 'H')
 896              		.loc 1 490 0
 897 04a0 0320D4E7 		ldrb	r2, [r4, r3]	@ zero_extendqisi2
 898 04a4 DF2002E2 		and	r2, r2, #223
 899 04a8 480052E3 		cmp	r2, #72
 900              	.LVL111:
 491:consol.c      ****   {
 492:consol.c      ****     wBase = 16;
 493:consol.c      ****     pString[wLastIndex] = 0;
 901              		.loc 1 493 0
 902 04ac 0020A003 		moveq	r2, #0
 903 04b0 0320C407 		streqb	r2, [r4, r3]
 904              	.LVL112:
 494:consol.c      ****     wLastIndex--;
 905              		.loc 1 494 0
 906 04b4 01304302 		subeq	r3, r3, #1
 907              	.LVL113:
 908 04b8 0100000A 		beq	.L113
 909              	.LVL114:
 910              	.L112:
 495:consol.c      ****   }
 496:consol.c      **** 
 497:consol.c      ****   if(wBase == 10)
 911              		.loc 1 497 0
 912 04bc 0A0056E3 		cmp	r6, #10
 913 04c0 0200000A 		beq	.L114
 914              	.LVL115:
ARM GAS  C:\Users\embedded\AppData\Local\Temp\cctRb3ik.s 			page 27


 915              	.L113:
 485:consol.c      ****     pString += 2;
 916              		.loc 1 485 0 discriminator 1
 917 04c4 0410A0E1 		mov	r1, r4
 918 04c8 0000A0E3 		mov	r0, #0
 919 04cc 0B0000EA 		b	.L115
 920              	.LVL116:
 921              	.L114:
 498:consol.c      ****   {
 499:consol.c      ****     wResult = atoi(pString);
 922              		.loc 1 499 0
 923 04d0 0400A0E1 		mov	r0, r4
 924 04d4 FEFFFFEB 		bl	atoi
 925              	.LVL117:
 926 04d8 0B0000EA 		b	.L133
 927              	.LVL118:
 928              	.L120:
 500:consol.c      ****     wResult = wMinus ? (-1*wResult):wResult;
 501:consol.c      ****   }
 502:consol.c      ****   else
 503:consol.c      ****   {
 504:consol.c      ****     for(wI=0; wI<=wLastIndex; wI++)
 505:consol.c      ****     {
 506:consol.c      ****       if(__isalpha(pString[wI]))
 929              		.loc 1 506 0
 930 04dc 0120D1E4 		ldrb	r2, [r1], #1	@ zero_extendqisi2
 931              	.LVL119:
 932 04e0 0002A0E1 		mov	r0, r0, asl #4
 933              	.LVL120:
 934 04e4 390052E3 		cmp	r2, #57
 507:consol.c      ****       {
 508:consol.c      ****         if(__isupper(pString[wI]))
 509:consol.c      ****           wResult = (wResult<<4) + pString[wI] - 'A' + 10;
 935              		.loc 1 509 0
 936 04e8 020080E0 		add	r0, r0, r2
 510:consol.c      ****         else
 511:consol.c      ****           wResult = (wResult<<4) + pString[wI] - 'a' + 10;
 512:consol.c      ****       }
 513:consol.c      ****       else
 514:consol.c      ****       {
 515:consol.c      ****         wResult = (wResult<<4) + pString[wI] - '0';
 937              		.loc 1 515 0
 938 04ec 30004092 		subls	r0, r0, #48
 506:consol.c      ****       {
 939              		.loc 1 506 0
 940 04f0 0200009A 		bls	.L115
 508:consol.c      ****           wResult = (wResult<<4) + pString[wI] - 'A' + 10;
 941              		.loc 1 508 0
 942 04f4 200012E3 		tst	r2, #32
 509:consol.c      ****         else
 943              		.loc 1 509 0
 944 04f8 37004002 		subeq	r0, r0, #55
 945              	.LVL121:
 511:consol.c      ****       }
 946              		.loc 1 511 0
 947 04fc 57004012 		subne	r0, r0, #87
 948              	.LVL122:
ARM GAS  C:\Users\embedded\AppData\Local\Temp\cctRb3ik.s 			page 28


 949              	.L115:
 504:consol.c      ****     {
 950              		.loc 1 504 0 discriminator 1
 951 0500 012064E0 		rsb	r2, r4, r1
 952 0504 030052E1 		cmp	r2, r3
 953 0508 F3FFFFDA 		ble	.L120
 954              	.LVL123:
 955              	.L133:
 516:consol.c      ****       }
 517:consol.c      ****     }
 518:consol.c      ****     wResult = wMinus ? (-1*wResult):wResult;
 956              		.loc 1 518 0
 957 050c 000055E3 		cmp	r5, #0
 958 0510 00006012 		rsbne	r0, r0, #0
 959              	.LVL124:
 519:consol.c      ****   }
 520:consol.c      ****   return wResult;
 521:consol.c      **** }
 960              		.loc 1 521 0
 961 0514 20D08DE2 		add	sp, sp, #32
 962              	.LCFI21:
 963              		.cfi_def_cfa_offset 16
 964              	.LVL125:
 965              		@ sp needed
 966 0518 7040BDE8 		ldmfd	sp!, {r4, r5, r6, lr}
 967              	.LCFI22:
 968              		.cfi_restore 14
 969              		.cfi_restore 6
 970              		.cfi_restore 5
 971              		.cfi_restore 4
 972              		.cfi_def_cfa_offset 0
 973              	.LVL126:
 974 051c 1EFF2FE1 		bx	lr
 975              		.cfi_endproc
 976              	.LFE11:
 977              		.size	consolGetIntNum, .-consolGetIntNum
 978              		.align	2
 979              		.global	consolScanf
 980              		.type	consolScanf, %function
 981              	consolScanf:
 982              	.LFB12:
 522:consol.c      **** 
 523:consol.c      **** /*****************************************************************************
 524:consol.c      ****  *
 525:consol.c      ****  * Description:
 526:consol.c      ****  *    A simple implementation of the scanf()-function. 
 527:consol.c      ****  *
 528:consol.c      ****  * Params:
 529:consol.c      ****  *    [inout] pFmt - format string, accepts:
 530:consol.c      ****  *                   %s - string
 531:consol.c      ****  *                   %c - character
 532:consol.c      ****  *                   %i - integer
 533:consol.c      ****  *
 534:consol.c      ****  ****************************************************************************/
 535:consol.c      **** void
 536:consol.c      **** consolScanf(char *pFmt, ...)
 537:consol.c      **** {
ARM GAS  C:\Users\embedded\AppData\Local\Temp\cctRb3ik.s 			page 29


 983              		.loc 1 537 0
 984              		.cfi_startproc
 985              		@ Function supports interworking.
 986              		@ args = 4, pretend = 16, frame = 8
 987              		@ frame_needed = 0, uses_anonymous_args = 1
 988              	.LVL127:
 989 0520 0F002DE9 		stmfd	sp!, {r0, r1, r2, r3}
 990              	.LCFI23:
 991              		.cfi_def_cfa_offset 16
 992              		.cfi_offset 0, -16
 993              		.cfi_offset 1, -12
 994              		.cfi_offset 2, -8
 995              		.cfi_offset 3, -4
 996 0524 37402DE9 		stmfd	sp!, {r0, r1, r2, r4, r5, lr}
 997              	.LCFI24:
 998              		.cfi_def_cfa_offset 40
 999              		.cfi_offset 4, -28
 1000              		.cfi_offset 5, -24
 1001              		.cfi_offset 14, -20
 538:consol.c      ****   va_list pArg;
 539:consol.c      ****   char    character;
 540:consol.c      ****   int    *pInt;
 541:consol.c      ****   char   *pChar;
 542:consol.c      ****         
 543:consol.c      ****   va_start(pArg, pFmt);
 1002              		.loc 1 543 0
 1003 0528 1C308DE2 		add	r3, sp, #28
 537:consol.c      ****   va_list pArg;
 1004              		.loc 1 537 0
 1005 052c 18409DE5 		ldr	r4, [sp, #24]
 1006              		.loc 1 543 0
 1007 0530 04308DE5 		str	r3, [sp, #4]
 1008              	.LVL128:
 1009              	.L135:
 544:consol.c      ****   while((character = *pFmt++) != '\0')
 1010              		.loc 1 544 0
 1011 0534 0130D4E4 		ldrb	r3, [r4], #1	@ zero_extendqisi2
 1012              	.LVL129:
 1013 0538 000053E3 		cmp	r3, #0
 1014 053c 2500000A 		beq	.L161
 545:consol.c      ****   {
 546:consol.c      ****     if(character != '%')continue;
 1015              		.loc 1 546 0
 1016 0540 250053E3 		cmp	r3, #37
 1017 0544 FAFFFF1A 		bne	.L135
 547:consol.c      ****     switch(*pFmt)
 1018              		.loc 1 547 0
 1019 0548 0030D4E5 		ldrb	r3, [r4]	@ zero_extendqisi2
 1020              	.LVL130:
 1021 054c 530053E3 		cmp	r3, #83
 1022 0550 0C00000A 		beq	.L137
 1023 0554 0400008A 		bhi	.L138
 1024 0558 430053E3 		cmp	r3, #67
 1025 055c 1600000A 		beq	.L139
 1026 0560 490053E3 		cmp	r3, #73
 1027 0564 0D00000A 		beq	.L140
 1028 0568 F1FFFFEA 		b	.L135
ARM GAS  C:\Users\embedded\AppData\Local\Temp\cctRb3ik.s 			page 30


 1029              	.L138:
 1030 056c 690053E3 		cmp	r3, #105
 1031 0570 0A00000A 		beq	.L140
 1032 0574 730053E3 		cmp	r3, #115
 1033 0578 0200000A 		beq	.L137
 1034 057c 630053E3 		cmp	r3, #99
 1035 0580 EBFFFF1A 		bne	.L135
 1036 0584 0C0000EA 		b	.L139
 1037              	.L137:
 548:consol.c      ****     {
 549:consol.c      ****     case 's':
 550:consol.c      ****     case 'S':
 551:consol.c      ****       pChar = va_arg (pArg, char *);
 1038              		.loc 1 551 0
 1039 0588 04309DE5 		ldr	r3, [sp, #4]
 1040 058c 042083E2 		add	r2, r3, #4
 552:consol.c      ****       consolGetString(pChar);
 1041              		.loc 1 552 0
 1042 0590 000093E5 		ldr	r0, [r3]
 551:consol.c      ****       consolGetString(pChar);
 1043              		.loc 1 551 0
 1044 0594 04208DE5 		str	r2, [sp, #4]
 1045              	.LVL131:
 1046              		.loc 1 552 0
 1047 0598 FEFFFFEB 		bl	consolGetString
 1048              	.LVL132:
 553:consol.c      ****       break;
 1049              		.loc 1 553 0
 1050 059c E4FFFFEA 		b	.L135
 1051              	.LVL133:
 1052              	.L140:
 554:consol.c      ****     case 'i':
 555:consol.c      ****     case 'I':
 556:consol.c      ****       pInt  = va_arg (pArg, int *);
 1053              		.loc 1 556 0
 1054 05a0 04309DE5 		ldr	r3, [sp, #4]
 1055 05a4 042083E2 		add	r2, r3, #4
 1056 05a8 005093E5 		ldr	r5, [r3]
 1057              	.LVL134:
 1058 05ac 04208DE5 		str	r2, [sp, #4]
 557:consol.c      ****       *pInt = consolGetIntNum();
 1059              		.loc 1 557 0
 1060 05b0 FEFFFFEB 		bl	consolGetIntNum
 1061              	.LVL135:
 1062 05b4 000085E5 		str	r0, [r5]
 558:consol.c      ****       break;
 1063              		.loc 1 558 0
 1064 05b8 DDFFFFEA 		b	.L135
 1065              	.LVL136:
 1066              	.L139:
 559:consol.c      ****     case 'c':
 560:consol.c      ****     case 'C':
 561:consol.c      ****       pChar  = va_arg (pArg, char *);
 1067              		.loc 1 561 0
 1068 05bc 04309DE5 		ldr	r3, [sp, #4]
 1069 05c0 042083E2 		add	r2, r3, #4
 1070 05c4 001093E5 		ldr	r1, [r3]
ARM GAS  C:\Users\embedded\AppData\Local\Temp\cctRb3ik.s 			page 31


 1071              	.LVL137:
 1072 05c8 04208DE5 		str	r2, [sp, #4]
 562:consol.c      ****       *pChar = consolGetCh();
 1073              		.loc 1 562 0
 1074 05cc FEFFFFEB 		bl	consolGetCh
 1075              	.LVL138:
 1076 05d0 0000C1E5 		strb	r0, [r1]
 563:consol.c      ****       break;
 1077              		.loc 1 563 0
 1078 05d4 D6FFFFEA 		b	.L135
 1079              	.LVL139:
 1080              	.L161:
 564:consol.c      ****     }
 565:consol.c      ****   }
 566:consol.c      ****   va_end(pArg);
 567:consol.c      **** }
 1081              		.loc 1 567 0
 1082 05d8 0CD08DE2 		add	sp, sp, #12
 1083              	.LCFI25:
 1084              		.cfi_def_cfa_offset 28
 1085              		@ sp needed
 1086 05dc 3040BDE8 		ldmfd	sp!, {r4, r5, lr}
 1087              	.LCFI26:
 1088              		.cfi_restore 14
 1089              		.cfi_restore 5
 1090              		.cfi_restore 4
 1091              		.cfi_def_cfa_offset 16
 1092              	.LVL140:
 1093 05e0 10D08DE2 		add	sp, sp, #16
 1094              	.LCFI27:
 1095              		.cfi_restore 3
 1096              		.cfi_restore 2
 1097              		.cfi_restore 1
 1098              		.cfi_restore 0
 1099              		.cfi_def_cfa_offset 0
 1100 05e4 1EFF2FE1 		bx	lr
 1101              		.cfi_endproc
 1102              	.LFE12:
 1103              		.size	consolScanf, .-consolScanf
 1104              		.section	.rodata
 1105              		.set	.LANCHOR0,. + 0
 1106              		.type	hexChars.5043, %object
 1107              		.size	hexChars.5043, 16
 1108              	hexChars.5043:
 1109 0000 30313233 		.ascii	"0123456789ABCDEF"
 1109      34353637 
 1109      38394142 
 1109      43444546 
 1110              		.section	.rodata.str1.1,"aMS",%progbits,1
 1111              	.LC0:
 1112 0000 30313233 		.ascii	"0123456789abcdef\000"
 1112      34353637 
 1112      38396162 
 1112      63646566 
 1112      00
 1113              	.LC1:
 1114 0011 08200800 		.ascii	"\010 \010\000"
ARM GAS  C:\Users\embedded\AppData\Local\Temp\cctRb3ik.s 			page 32


 1115              		.text
 1116              	.Letext0:
 1117              		.file 2 "c:\\embedded\\tools\\lib\\gcc\\arm-none-eabi\\5.4.1\\include\\stdarg.h"
 1118              		.file 3 "c:\\embedded\\tools\\arm-none-eabi\\include\\string.h"
 1119              		.file 4 "c:\\embedded\\tools\\arm-none-eabi\\include\\stdlib.h"
 1120              		.file 5 "<built-in>"