ARM GAS  C:\Users\embedded\AppData\Local\Temp\ccet8OlE.s 			page 1


   1              		.cpu arm7tdmi
   2              		.fpu softvfp
   3              		.eabi_attribute 20, 1
   4              		.eabi_attribute 21, 1
   5              		.eabi_attribute 23, 3
   6              		.eabi_attribute 24, 1
   7              		.eabi_attribute 25, 1
   8              		.eabi_attribute 26, 1
   9              		.eabi_attribute 30, 4
  10              		.eabi_attribute 34, 0
  11              		.eabi_attribute 18, 4
  12              		.arm
  13              		.syntax divided
  14              		.file	"framework.c"
  15              		.text
  16              	.Ltext0:
  17              		.cfi_sections	.debug_frame
  18              		.align	2
  19              		.type	exceptionHandlerFiq, %function
  20              	exceptionHandlerFiq:
  21              	.LFB4:
  22              		.file 1 "framework.c"
   1:framework.c   **** /******************************************************************************
   2:framework.c   ****  *
   3:framework.c   ****  * Copyright:
   4:framework.c   ****  *    (C) 2000 - 2005 Embedded Artists AB
   5:framework.c   ****  *
   6:framework.c   ****  * Description:
   7:framework.c   ****  *    Framework for ARM7 processor
   8:framework.c   ****  *
   9:framework.c   ****  *****************************************************************************/
  10:framework.c   **** 
  11:framework.c   **** /******************************************************************************
  12:framework.c   ****  * Includes
  13:framework.c   ****  *****************************************************************************/
  14:framework.c   **** #include "lpc2xxx.h"                            /* LPC2xxx definitions */
  15:framework.c   **** #include "config.h"
  16:framework.c   **** #include "framework.h"
  17:framework.c   **** #include "consol.h"
  18:framework.c   **** 
  19:framework.c   **** /******************************************************************************
  20:framework.c   ****  * Defines, macros, and typedefs
  21:framework.c   ****  *****************************************************************************/
  22:framework.c   **** 
  23:framework.c   **** 
  24:framework.c   **** /******************************************************************************
  25:framework.c   ****  * External variables
  26:framework.c   ****  *****************************************************************************/
  27:framework.c   **** extern char end asm ("end");  //the symbol "end" is defined by the linker script
  28:framework.c   **** 
  29:framework.c   **** 
  30:framework.c   **** /******************************************************************************
  31:framework.c   ****  * Public variables
  32:framework.c   ****  *****************************************************************************/
  33:framework.c   **** unsigned char *pHeapStart;
  34:framework.c   **** unsigned char *pHeapEnd;
  35:framework.c   **** 
ARM GAS  C:\Users\embedded\AppData\Local\Temp\ccet8OlE.s 			page 2


  36:framework.c   **** 
  37:framework.c   **** /******************************************************************************
  38:framework.c   ****  * External functions
  39:framework.c   ****  *****************************************************************************/
  40:framework.c   **** 
  41:framework.c   **** 
  42:framework.c   **** /******************************************************************************
  43:framework.c   ****  * Public functions
  44:framework.c   ****  *****************************************************************************/
  45:framework.c   **** void lowLevelInit(void);
  46:framework.c   **** void eaInit(void);
  47:framework.c   **** void exceptionHandlerInit(void);
  48:framework.c   **** 
  49:framework.c   **** /******************************************************************************
  50:framework.c   ****  * Implementation of local functions
  51:framework.c   ****  *****************************************************************************/
  52:framework.c   **** 
  53:framework.c   **** /*****************************************************************************
  54:framework.c   ****  *
  55:framework.c   ****  * Description:
  56:framework.c   ****  *    Default exception handler for undefined instruction.
  57:framework.c   ****  *    Prints information and halt. Observe that code execture in exception
  58:framework.c   ****  *    mode (as opposed to supervisor mode, which is the normal execution mode).
  59:framework.c   ****  *
  60:framework.c   ****  ****************************************************************************/
  61:framework.c   **** static void
  62:framework.c   **** exceptionHandlerUndef(void)
  63:framework.c   **** {
  64:framework.c   ****   register unsigned int programCounter asm ("lr");
  65:framework.c   ****   unsigned int          value = programCounter - (unsigned int)0x04;
  66:framework.c   **** 
  67:framework.c   ****   consolSendString("Undefined instruction exception !!!\nAddress: 0x");
  68:framework.c   ****   consolSendNumber(16, 8, 0, '0', value); 
  69:framework.c   ****   while(1)
  70:framework.c   ****     ;
  71:framework.c   **** }
  72:framework.c   **** 
  73:framework.c   **** /*****************************************************************************
  74:framework.c   ****  *
  75:framework.c   ****  * Description:
  76:framework.c   ****  *    Default exception handler for software interrupt.
  77:framework.c   ****  *    Prints information and halt. Observe that code execture in exception
  78:framework.c   ****  *    mode (as opposed to supervisor mode, which is the normal execution mode).
  79:framework.c   ****  *
  80:framework.c   ****  ****************************************************************************/
  81:framework.c   **** static void
  82:framework.c   **** exceptionHandlerSwi(void)
  83:framework.c   **** {
  84:framework.c   ****   register unsigned int programCounter asm ("lr");
  85:framework.c   ****   unsigned int          value = programCounter - (unsigned int)0x04;
  86:framework.c   **** 
  87:framework.c   ****   consolSendString("SWI exception !!!\nAddress: 0x");
  88:framework.c   ****   consolSendNumber(16, 8, 0, '0', value); 
  89:framework.c   ****   while(1)
  90:framework.c   ****   {
  91:framework.c   **** 	  // infinity
  92:framework.c   ****   }
ARM GAS  C:\Users\embedded\AppData\Local\Temp\ccet8OlE.s 			page 3


  93:framework.c   **** }
  94:framework.c   **** 
  95:framework.c   **** /*****************************************************************************
  96:framework.c   ****  *
  97:framework.c   ****  * Description:
  98:framework.c   ****  *    Default exception handler for invalid program fetch.
  99:framework.c   ****  *    Prints information and halt. Observe that code execture in exception
 100:framework.c   ****  *    mode (as opposed to supervisor mode, which is the normal execution mode).
 101:framework.c   ****  *
 102:framework.c   ****  ****************************************************************************/
 103:framework.c   **** static void
 104:framework.c   **** exceptionHandlerPabort()
 105:framework.c   **** {
 106:framework.c   ****   register unsigned int programCounter asm ("lr");
 107:framework.c   ****   unsigned int          value = programCounter - (unsigned int)0x04;
 108:framework.c   **** 
 109:framework.c   ****   consolSendString("Pabort exception !!!\nAddress: 0x");
 110:framework.c   ****   consolSendNumber(16, 8, 0, '0', value); 
 111:framework.c   ****   while(1)
 112:framework.c   ****     ;
 113:framework.c   **** }
 114:framework.c   **** 
 115:framework.c   **** /*****************************************************************************
 116:framework.c   ****  *
 117:framework.c   ****  * Description:
 118:framework.c   ****  *    Default exception handler for invalid data access.
 119:framework.c   ****  *    Prints information and halt. Observe that code execture in exception
 120:framework.c   ****  *    mode (as opposed to supervisor mode, which is the normal execution mode).
 121:framework.c   ****  *
 122:framework.c   ****  ****************************************************************************/
 123:framework.c   **** static void
 124:framework.c   **** exceptionHandlerDabort(void)
 125:framework.c   **** {
 126:framework.c   ****   register unsigned int programCounter asm ("lr");
 127:framework.c   ****   unsigned int          value = programCounter - (unsigned int)0x08;
 128:framework.c   **** 
 129:framework.c   ****   consolSendString("Dabort exception !!!\nAddress: 0x");
 130:framework.c   ****   consolSendNumber(16, 8, 0, '0', value); 
 131:framework.c   ****   while(1)
 132:framework.c   ****     ;
 133:framework.c   **** }
 134:framework.c   **** 
 135:framework.c   **** /*****************************************************************************
 136:framework.c   ****  *
 137:framework.c   ****  * Description:
 138:framework.c   ****  *    Default exception handler for fast interrupts.
 139:framework.c   ****  *    Prints information and halt. Observe that code execture in exception
 140:framework.c   ****  *    mode (as opposed to supervisor mode, which is the normal execution mode).
 141:framework.c   ****  *
 142:framework.c   ****  ****************************************************************************/
 143:framework.c   **** static void
 144:framework.c   **** exceptionHandlerFiq(void)
 145:framework.c   **** {
  23              		.loc 1 145 0
  24              		.cfi_startproc
  25              		@ Function supports interworking.
  26              		@ args = 0, pretend = 0, frame = 0
ARM GAS  C:\Users\embedded\AppData\Local\Temp\ccet8OlE.s 			page 4


  27              		@ frame_needed = 0, uses_anonymous_args = 0
  28 0000 13402DE9 		stmfd	sp!, {r0, r1, r4, lr}
  29              	.LCFI0:
  30              		.cfi_def_cfa_offset 16
  31              		.cfi_offset 4, -8
  32              		.cfi_offset 14, -4
 146:framework.c   ****   register unsigned int programCounter asm ("lr");
 147:framework.c   ****   unsigned int          value = programCounter - (unsigned int)0x04;
  33              		.loc 1 147 0
  34 0004 0E40A0E1 		mov	r4, lr
  35              	.LVL0:
 148:framework.c   **** 
 149:framework.c   ****   consolSendString("FIQ exception !!!\nAddress: 0x");
  36              		.loc 1 149 0
  37 0008 20009FE5 		ldr	r0, .L5
 150:framework.c   ****   consolSendNumber(16, 8, 0, '0', value); 
  38              		.loc 1 150 0
  39 000c 044044E2 		sub	r4, r4, #4
  40              	.LVL1:
 149:framework.c   ****   consolSendNumber(16, 8, 0, '0', value); 
  41              		.loc 1 149 0
  42 0010 FEFFFFEB 		bl	consolSendString
  43              	.LVL2:
  44              		.loc 1 150 0
  45 0014 00408DE5 		str	r4, [sp]
  46 0018 3030A0E3 		mov	r3, #48
  47 001c 0020A0E3 		mov	r2, #0
  48 0020 0810A0E3 		mov	r1, #8
  49 0024 1000A0E3 		mov	r0, #16
  50 0028 FEFFFFEB 		bl	consolSendNumber
  51              	.LVL3:
  52              	.L2:
  53 002c FEFFFFEA 		b	.L2
  54              	.L6:
  55              		.align	2
  56              	.L5:
  57 0030 00000000 		.word	.LC0
  58              		.cfi_endproc
  59              	.LFE4:
  60              		.size	exceptionHandlerFiq, .-exceptionHandlerFiq
  61              		.align	2
  62              		.type	exceptionHandlerDabort, %function
  63              	exceptionHandlerDabort:
  64              	.LFB3:
 125:framework.c   ****   register unsigned int programCounter asm ("lr");
  65              		.loc 1 125 0
  66              		.cfi_startproc
  67              		@ Function supports interworking.
  68              		@ args = 0, pretend = 0, frame = 0
  69              		@ frame_needed = 0, uses_anonymous_args = 0
  70 0034 13402DE9 		stmfd	sp!, {r0, r1, r4, lr}
  71              	.LCFI1:
  72              		.cfi_def_cfa_offset 16
  73              		.cfi_offset 4, -8
  74              		.cfi_offset 14, -4
 127:framework.c   **** 
  75              		.loc 1 127 0
ARM GAS  C:\Users\embedded\AppData\Local\Temp\ccet8OlE.s 			page 5


  76 0038 0E40A0E1 		mov	r4, lr
  77              	.LVL4:
 129:framework.c   ****   consolSendNumber(16, 8, 0, '0', value); 
  78              		.loc 1 129 0
  79 003c 20009FE5 		ldr	r0, .L10
 130:framework.c   ****   while(1)
  80              		.loc 1 130 0
  81 0040 084044E2 		sub	r4, r4, #8
  82              	.LVL5:
 129:framework.c   ****   consolSendNumber(16, 8, 0, '0', value); 
  83              		.loc 1 129 0
  84 0044 FEFFFFEB 		bl	consolSendString
  85              	.LVL6:
 130:framework.c   ****   while(1)
  86              		.loc 1 130 0
  87 0048 00408DE5 		str	r4, [sp]
  88 004c 3030A0E3 		mov	r3, #48
  89 0050 0020A0E3 		mov	r2, #0
  90 0054 0810A0E3 		mov	r1, #8
  91 0058 1000A0E3 		mov	r0, #16
  92 005c FEFFFFEB 		bl	consolSendNumber
  93              	.LVL7:
  94              	.L8:
  95 0060 FEFFFFEA 		b	.L8
  96              	.L11:
  97              		.align	2
  98              	.L10:
  99 0064 1E000000 		.word	.LC1
 100              		.cfi_endproc
 101              	.LFE3:
 102              		.size	exceptionHandlerDabort, .-exceptionHandlerDabort
 103              		.align	2
 104              		.type	exceptionHandlerPabort, %function
 105              	exceptionHandlerPabort:
 106              	.LFB2:
 105:framework.c   ****   register unsigned int programCounter asm ("lr");
 107              		.loc 1 105 0
 108              		.cfi_startproc
 109              		@ Function supports interworking.
 110              		@ args = 0, pretend = 0, frame = 0
 111              		@ frame_needed = 0, uses_anonymous_args = 0
 112 0068 13402DE9 		stmfd	sp!, {r0, r1, r4, lr}
 113              	.LCFI2:
 114              		.cfi_def_cfa_offset 16
 115              		.cfi_offset 4, -8
 116              		.cfi_offset 14, -4
 107:framework.c   **** 
 117              		.loc 1 107 0
 118 006c 0E40A0E1 		mov	r4, lr
 119              	.LVL8:
 109:framework.c   ****   consolSendNumber(16, 8, 0, '0', value); 
 120              		.loc 1 109 0
 121 0070 20009FE5 		ldr	r0, .L15
 110:framework.c   ****   while(1)
 122              		.loc 1 110 0
 123 0074 044044E2 		sub	r4, r4, #4
 124              	.LVL9:
ARM GAS  C:\Users\embedded\AppData\Local\Temp\ccet8OlE.s 			page 6


 109:framework.c   ****   consolSendNumber(16, 8, 0, '0', value); 
 125              		.loc 1 109 0
 126 0078 FEFFFFEB 		bl	consolSendString
 127              	.LVL10:
 110:framework.c   ****   while(1)
 128              		.loc 1 110 0
 129 007c 00408DE5 		str	r4, [sp]
 130 0080 3030A0E3 		mov	r3, #48
 131 0084 0020A0E3 		mov	r2, #0
 132 0088 0810A0E3 		mov	r1, #8
 133 008c 1000A0E3 		mov	r0, #16
 134 0090 FEFFFFEB 		bl	consolSendNumber
 135              	.LVL11:
 136              	.L13:
 137 0094 FEFFFFEA 		b	.L13
 138              	.L16:
 139              		.align	2
 140              	.L15:
 141 0098 3F000000 		.word	.LC2
 142              		.cfi_endproc
 143              	.LFE2:
 144              		.size	exceptionHandlerPabort, .-exceptionHandlerPabort
 145              		.align	2
 146              		.type	exceptionHandlerSwi, %function
 147              	exceptionHandlerSwi:
 148              	.LFB1:
  83:framework.c   ****   register unsigned int programCounter asm ("lr");
 149              		.loc 1 83 0
 150              		.cfi_startproc
 151              		@ Function supports interworking.
 152              		@ args = 0, pretend = 0, frame = 0
 153              		@ frame_needed = 0, uses_anonymous_args = 0
 154 009c 13402DE9 		stmfd	sp!, {r0, r1, r4, lr}
 155              	.LCFI3:
 156              		.cfi_def_cfa_offset 16
 157              		.cfi_offset 4, -8
 158              		.cfi_offset 14, -4
  85:framework.c   **** 
 159              		.loc 1 85 0
 160 00a0 0E40A0E1 		mov	r4, lr
 161              	.LVL12:
  87:framework.c   ****   consolSendNumber(16, 8, 0, '0', value); 
 162              		.loc 1 87 0
 163 00a4 20009FE5 		ldr	r0, .L20
  88:framework.c   ****   while(1)
 164              		.loc 1 88 0
 165 00a8 044044E2 		sub	r4, r4, #4
 166              	.LVL13:
  87:framework.c   ****   consolSendNumber(16, 8, 0, '0', value); 
 167              		.loc 1 87 0
 168 00ac FEFFFFEB 		bl	consolSendString
 169              	.LVL14:
  88:framework.c   ****   while(1)
 170              		.loc 1 88 0
 171 00b0 00408DE5 		str	r4, [sp]
 172 00b4 3030A0E3 		mov	r3, #48
 173 00b8 0020A0E3 		mov	r2, #0
ARM GAS  C:\Users\embedded\AppData\Local\Temp\ccet8OlE.s 			page 7


 174 00bc 0810A0E3 		mov	r1, #8
 175 00c0 1000A0E3 		mov	r0, #16
 176 00c4 FEFFFFEB 		bl	consolSendNumber
 177              	.LVL15:
 178              	.L18:
 179 00c8 FEFFFFEA 		b	.L18
 180              	.L21:
 181              		.align	2
 182              	.L20:
 183 00cc 60000000 		.word	.LC3
 184              		.cfi_endproc
 185              	.LFE1:
 186              		.size	exceptionHandlerSwi, .-exceptionHandlerSwi
 187              		.align	2
 188              		.type	exceptionHandlerUndef, %function
 189              	exceptionHandlerUndef:
 190              	.LFB0:
  63:framework.c   ****   register unsigned int programCounter asm ("lr");
 191              		.loc 1 63 0
 192              		.cfi_startproc
 193              		@ Function supports interworking.
 194              		@ args = 0, pretend = 0, frame = 0
 195              		@ frame_needed = 0, uses_anonymous_args = 0
 196 00d0 13402DE9 		stmfd	sp!, {r0, r1, r4, lr}
 197              	.LCFI4:
 198              		.cfi_def_cfa_offset 16
 199              		.cfi_offset 4, -8
 200              		.cfi_offset 14, -4
  65:framework.c   **** 
 201              		.loc 1 65 0
 202 00d4 0E40A0E1 		mov	r4, lr
 203              	.LVL16:
  67:framework.c   ****   consolSendNumber(16, 8, 0, '0', value); 
 204              		.loc 1 67 0
 205 00d8 20009FE5 		ldr	r0, .L25
  68:framework.c   ****   while(1)
 206              		.loc 1 68 0
 207 00dc 044044E2 		sub	r4, r4, #4
 208              	.LVL17:
  67:framework.c   ****   consolSendNumber(16, 8, 0, '0', value); 
 209              		.loc 1 67 0
 210 00e0 FEFFFFEB 		bl	consolSendString
 211              	.LVL18:
  68:framework.c   ****   while(1)
 212              		.loc 1 68 0
 213 00e4 00408DE5 		str	r4, [sp]
 214 00e8 3030A0E3 		mov	r3, #48
 215 00ec 0020A0E3 		mov	r2, #0
 216 00f0 0810A0E3 		mov	r1, #8
 217 00f4 1000A0E3 		mov	r0, #16
 218 00f8 FEFFFFEB 		bl	consolSendNumber
 219              	.LVL19:
 220              	.L23:
 221 00fc FEFFFFEA 		b	.L23
 222              	.L26:
 223              		.align	2
 224              	.L25:
ARM GAS  C:\Users\embedded\AppData\Local\Temp\ccet8OlE.s 			page 8


 225 0100 7E000000 		.word	.LC4
 226              		.cfi_endproc
 227              	.LFE0:
 228              		.size	exceptionHandlerUndef, .-exceptionHandlerUndef
 229              		.align	2
 230              		.global	exceptionHandlerInit
 231              		.type	exceptionHandlerInit, %function
 232              	exceptionHandlerInit:
 233              	.LFB5:
 151:framework.c   ****   while(1)
 152:framework.c   ****     ;
 153:framework.c   **** }
 154:framework.c   **** 
 155:framework.c   **** #if (IRQ_HANDLER == 0)
 156:framework.c   **** /*****************************************************************************
 157:framework.c   ****  *
 158:framework.c   ****  * Description:
 159:framework.c   ****  *    Default exception handler for normal interrupts. This handler should
 160:framework.c   ****  *    normally never be used.
 161:framework.c   ****  *    Prints information and halt. Observe that code execture in exception
 162:framework.c   ****  *    mode (as opposed to supervisor mode, which is the normal execution mode).
 163:framework.c   ****  *
 164:framework.c   ****  ****************************************************************************/
 165:framework.c   **** static void
 166:framework.c   **** exceptionHandlerIrq(void)
 167:framework.c   **** {
 168:framework.c   ****   register unsigned int programCounter asm ("lr");
 169:framework.c   ****   unsigned int          value = programCounter - (unsigned int)0x04;
 170:framework.c   **** 
 171:framework.c   ****   consolSendString("IRQ exception !!!\nAddress: 0x");
 172:framework.c   ****   consolSendNumber(16, 8, 0, '0', value); 
 173:framework.c   ****   while(1)
 174:framework.c   ****     ;
 175:framework.c   **** }
 176:framework.c   **** #endif
 177:framework.c   **** 
 178:framework.c   **** /******************************************************************************
 179:framework.c   ****  * Implementation of public functions
 180:framework.c   ****  *****************************************************************************/
 181:framework.c   **** 
 182:framework.c   **** /*****************************************************************************
 183:framework.c   ****  *
 184:framework.c   ****  * Description:
 185:framework.c   ****  *    Connect all default exception handlers.
 186:framework.c   ****  *    The application can overwrite these handlers with new ones.
 187:framework.c   ****  *
 188:framework.c   ****  ****************************************************************************/
 189:framework.c   **** void
 190:framework.c   **** exceptionHandlerInit(void)
 191:framework.c   **** {
 234              		.loc 1 191 0
 235              		.cfi_startproc
 236              		@ Function supports interworking.
 237              		@ args = 0, pretend = 0, frame = 0
 238              		@ frame_needed = 0, uses_anonymous_args = 0
 239              		@ link register save eliminated.
 192:framework.c   ****   pISR_UNDEF  = (unsigned int)exceptionHandlerUndef;
ARM GAS  C:\Users\embedded\AppData\Local\Temp\ccet8OlE.s 			page 9


 240              		.loc 1 192 0
 241 0104 0131A0E3 		mov	r3, #1073741824
 242 0108 3C209FE5 		ldr	r2, .L28
 243 010c 242083E5 		str	r2, [r3, #36]
 193:framework.c   ****   pISR_SWI    = (unsigned int)exceptionHandlerSwi;
 244              		.loc 1 193 0
 245 0110 38209FE5 		ldr	r2, .L28+4
 246 0114 282083E5 		str	r2, [r3, #40]
 194:framework.c   ****   pISR_PABORT = (unsigned int)exceptionHandlerPabort;
 247              		.loc 1 194 0
 248 0118 34209FE5 		ldr	r2, .L28+8
 249 011c 2C2083E5 		str	r2, [r3, #44]
 195:framework.c   ****   pISR_DABORT = (unsigned int)exceptionHandlerDabort;
 250              		.loc 1 195 0
 251 0120 30209FE5 		ldr	r2, .L28+12
 252 0124 302083E5 		str	r2, [r3, #48]
 196:framework.c   ****   pISR_FIQ    = (unsigned int)exceptionHandlerFiq;
 253              		.loc 1 196 0
 254 0128 2C209FE5 		ldr	r2, .L28+16
 255 012c 382083E5 		str	r2, [r3, #56]
 197:framework.c   **** 
 198:framework.c   **** #if (IRQ_HANDLER == 0)
 199:framework.c   ****   pISR_IRQ    = (unsigned int)exceptionHandlerIrq;
 200:framework.c   **** #endif
 201:framework.c   **** 
 202:framework.c   ****   //set heap limits
 203:framework.c   ****   pHeapStart = (unsigned char*)&end;
 256              		.loc 1 203 0
 257 0130 28209FE5 		ldr	r2, .L28+20
 258 0134 28309FE5 		ldr	r3, .L28+24
 259 0138 002083E5 		str	r2, [r3]
 204:framework.c   ****   pHeapEnd   = (unsigned char*)((STK_SADDR - 1) & 0xfffffffc);
 260              		.loc 1 204 0
 261 013c 24209FE5 		ldr	r2, .L28+28
 262 0140 24309FE5 		ldr	r3, .L28+32
 263 0144 002083E5 		str	r2, [r3]
 264 0148 1EFF2FE1 		bx	lr
 265              	.L29:
 266              		.align	2
 267              	.L28:
 268 014c 00000000 		.word	exceptionHandlerUndef
 269 0150 00000000 		.word	exceptionHandlerSwi
 270 0154 00000000 		.word	exceptionHandlerPabort
 271 0158 00000000 		.word	exceptionHandlerDabort
 272 015c 00000000 		.word	exceptionHandlerFiq
 273 0160 00000000 		.word	end
 274 0164 00000000 		.word	pHeapStart
 275 0168 A4740040 		.word	1073771684
 276 016c 00000000 		.word	pHeapEnd
 277              		.cfi_endproc
 278              	.LFE5:
 279              		.size	exceptionHandlerInit, .-exceptionHandlerInit
 280              		.align	2
 281              		.global	lowLevelInit
 282              		.type	lowLevelInit, %function
 283              	lowLevelInit:
 284              	.LFB6:
ARM GAS  C:\Users\embedded\AppData\Local\Temp\ccet8OlE.s 			page 10


 205:framework.c   **** }
 206:framework.c   **** 
 207:framework.c   **** /*****************************************************************************
 208:framework.c   ****  *
 209:framework.c   ****  * Description:
 210:framework.c   ****  *    Initialize system functions and GPIO
 211:framework.c   ****  *
 212:framework.c   ****  ****************************************************************************/
 213:framework.c   **** void
 214:framework.c   **** lowLevelInit(void)
 215:framework.c   **** {
 285              		.loc 1 215 0
 286              		.cfi_startproc
 287              		@ Function supports interworking.
 288              		@ args = 0, pretend = 0, frame = 0
 289              		@ frame_needed = 0, uses_anonymous_args = 0
 290              		@ link register save eliminated.
 216:framework.c   ****   PINSEL0 = 0x00000000;  
 291              		.loc 1 216 0
 292 0170 0030A0E3 		mov	r3, #0
 293 0174 94209FE5 		ldr	r2, .L31
 294 0178 003082E5 		str	r3, [r2]
 217:framework.c   ****   PINSEL1 = 0x00000000;  
 295              		.loc 1 217 0
 296 017c 043082E5 		str	r3, [r2, #4]
 218:framework.c   **** 
 219:framework.c   ****   IOSET = 0x00000000;       //Initialize pins to high level
 220:framework.c   ****   IOCLR = 0xffffffff;       //Initialize pins to low level
 297              		.loc 1 220 0
 298 0180 0020E0E3 		mvn	r2, #0
 221:framework.c   ****   IODIR = 0x00000000;       //Set pin direction
 222:framework.c   **** 
 223:framework.c   ****   //initialize the MAM (Memory Accelerator Module)
 224:framework.c   ****   MAMTIM = MAM_TIMING;       //number of CCLK to read from the FLASH
 299              		.loc 1 224 0
 300 0184 0300A0E3 		mov	r0, #3
 219:framework.c   ****   IOCLR = 0xffffffff;       //Initialize pins to low level
 301              		.loc 1 219 0
 302 0188 84109FE5 		ldr	r1, .L31+4
 303 018c 043081E5 		str	r3, [r1, #4]
 220:framework.c   ****   IODIR = 0x00000000;       //Set pin direction
 304              		.loc 1 220 0
 305 0190 0C2081E5 		str	r2, [r1, #12]
 221:framework.c   ****   IODIR = 0x00000000;       //Set pin direction
 306              		.loc 1 221 0
 307 0194 083081E5 		str	r3, [r1, #8]
 308              		.loc 1 224 0
 309 0198 751981E2 		add	r1, r1, #1916928
 310 019c 040081E5 		str	r0, [r1, #4]
 225:framework.c   ****   MAMCR  = MAM_SETTING;      //0=disabled, 1=partly enabled (enabled for code prefetch, but not for
 311              		.loc 1 225 0
 312 01a0 0200A0E3 		mov	r0, #2
 313 01a4 000081E5 		str	r0, [r1]
 226:framework.c   **** 
 227:framework.c   ****   //initialize the exception vector mapping
 228:framework.c   ****   MAMMAP = MAM_MAP;
 314              		.loc 1 228 0
ARM GAS  C:\Users\embedded\AppData\Local\Temp\ccet8OlE.s 			page 11


 315 01a8 0100A0E3 		mov	r0, #1
 316 01ac 400081E5 		str	r0, [r1, #64]
 229:framework.c   **** 
 230:framework.c   ****   //set the peripheral bus speed, PCLK = CCLK / PBSD
 231:framework.c   **** 	VPBDIV = PBSD;
 317              		.loc 1 231 0
 318 01b0 000181E5 		str	r0, [r1, #256]
 232:framework.c   **** 	
 233:framework.c   **** 	//initialize VIC
 234:framework.c   ****   VICIntEnClr    = 0xFFFFFFFF;           /* Disable ALL interrupts                             */
 319              		.loc 1 234 0
 320 01b4 EB2F02E5 		str	r2, [r2, #-4075]
 235:framework.c   ****   VICProtection  = 0;                    /* Setup interrupt controller                         */
 321              		.loc 1 235 0
 322 01b8 DF3F02E5 		str	r3, [r2, #-4063]
 236:framework.c   ****   VICDefVectAddr = (unsigned int)0;      /* Direct unvectored IRQs to reset, i.e., address 0x0 */
 323              		.loc 1 236 0
 324 01bc CB3F02E5 		str	r3, [r2, #-4043]
 237:framework.c   **** 
 238:framework.c   ****   VICVectAddr0   = (unsigned int)0;      /* Set the vector address                             */
 325              		.loc 1 238 0
 326 01c0 FF3E02E5 		str	r3, [r2, #-3839]
 239:framework.c   ****   VICVectAddr1   = (unsigned int)0;      /* Set the vector address                             */
 327              		.loc 1 239 0
 328 01c4 FB3E02E5 		str	r3, [r2, #-3835]
 240:framework.c   ****   VICVectAddr2   = (unsigned int)0;      /* Set the vector address                             */
 329              		.loc 1 240 0
 330 01c8 F73E02E5 		str	r3, [r2, #-3831]
 241:framework.c   ****   VICVectAddr3   = (unsigned int)0;      /* Set the vector address                             */
 331              		.loc 1 241 0
 332 01cc F33E02E5 		str	r3, [r2, #-3827]
 242:framework.c   ****   VICVectAddr4   = (unsigned int)0;      /* Set the vector address                             */
 333              		.loc 1 242 0
 334 01d0 EF3E02E5 		str	r3, [r2, #-3823]
 243:framework.c   ****   VICVectAddr5   = (unsigned int)0;      /* Set the vector address                             */
 335              		.loc 1 243 0
 336 01d4 EB3E02E5 		str	r3, [r2, #-3819]
 244:framework.c   ****   VICVectAddr6   = (unsigned int)0;      /* Set the vector address                             */
 337              		.loc 1 244 0
 338 01d8 E73E02E5 		str	r3, [r2, #-3815]
 245:framework.c   ****   VICVectAddr7   = (unsigned int)0;      /* Set the vector address                             */
 339              		.loc 1 245 0
 340 01dc E33E02E5 		str	r3, [r2, #-3811]
 246:framework.c   ****   VICVectAddr8   = (unsigned int)0;      /* Set the vector address                             */
 341              		.loc 1 246 0
 342 01e0 DF3E02E5 		str	r3, [r2, #-3807]
 247:framework.c   ****   VICVectAddr9   = (unsigned int)0;      /* Set the vector address                             */
 343              		.loc 1 247 0
 344 01e4 DB3E02E5 		str	r3, [r2, #-3803]
 248:framework.c   ****   VICVectAddr10  = (unsigned int)0;      /* Set the vector address                             */
 345              		.loc 1 248 0
 346 01e8 D73E02E5 		str	r3, [r2, #-3799]
 249:framework.c   ****   VICVectAddr11  = (unsigned int)0;      /* Set the vector address                             */
 347              		.loc 1 249 0
 348 01ec D33E02E5 		str	r3, [r2, #-3795]
 250:framework.c   ****   VICVectAddr12  = (unsigned int)0;      /* Set the vector address                             */
 349              		.loc 1 250 0
ARM GAS  C:\Users\embedded\AppData\Local\Temp\ccet8OlE.s 			page 12


 350 01f0 CF3E02E5 		str	r3, [r2, #-3791]
 251:framework.c   ****   VICVectAddr13  = (unsigned int)0;      /* Set the vector address                             */
 351              		.loc 1 251 0
 352 01f4 CB3E02E5 		str	r3, [r2, #-3787]
 252:framework.c   ****   VICVectAddr14  = (unsigned int)0;      /* Set the vector address                             */
 353              		.loc 1 252 0
 354 01f8 C73E02E5 		str	r3, [r2, #-3783]
 253:framework.c   ****   VICVectAddr15  = (unsigned int)0;      /* Set the vector address                             */
 355              		.loc 1 253 0
 356 01fc C33E02E5 		str	r3, [r2, #-3779]
 254:framework.c   **** 	
 255:framework.c   ****   //enable interrupts (both IRQ and FIQ) 
 256:framework.c   ****   asm volatile ("mrs r3, cpsr       \n\t"                          
 357              		.loc 1 256 0
 358              		.syntax divided
 359              	@ 256 "framework.c" 1
 360 0200 00300FE1 		mrs r3, cpsr       
 361 0204 C030C3E3 		bic r3, r3, #0xC0  
 362 0208 03F029E1 		msr cpsr, r3       
 363              		
 364              	@ 0 "" 2
 365              		.arm
 366              		.syntax divided
 367 020c 1EFF2FE1 		bx	lr
 368              	.L32:
 369              		.align	2
 370              	.L31:
 371 0210 00C002E0 		.word	-536690688
 372 0214 008002E0 		.word	-536707072
 373              		.cfi_endproc
 374              	.LFE6:
 375              		.size	lowLevelInit, .-lowLevelInit
 376              		.align	2
 377              		.global	printf_init
 378              		.type	printf_init, %function
 379              	printf_init:
 380              	.LFB7:
 257:framework.c   ****                 "bic r3, r3, #0xC0  \n\t"                      
 258:framework.c   ****                 "msr cpsr, r3       \n\t"                          
 259:framework.c   ****                 :                                       
 260:framework.c   ****                 :                                       
 261:framework.c   ****                 : "r3" );
 262:framework.c   **** }
 263:framework.c   **** 
 264:framework.c   **** /*****************************************************************************
 265:framework.c   ****  *
 266:framework.c   ****  * Description:
 267:framework.c   ****  *    Initialize the consol
 268:framework.c   ****  *
 269:framework.c   ****  ****************************************************************************/
 270:framework.c   **** void
 271:framework.c   **** printf_init(void)
 272:framework.c   **** {
 381              		.loc 1 272 0
 382              		.cfi_startproc
 383              		@ Function supports interworking.
 384              		@ args = 0, pretend = 0, frame = 0
ARM GAS  C:\Users\embedded\AppData\Local\Temp\ccet8OlE.s 			page 13


 385              		@ frame_needed = 0, uses_anonymous_args = 0
 386 0218 10402DE9 		stmfd	sp!, {r4, lr}
 387              	.LCFI5:
 388              		.cfi_def_cfa_offset 8
 389              		.cfi_offset 4, -8
 390              		.cfi_offset 14, -4
 273:framework.c   ****   //initialize the consol
 274:framework.c   ****   consolInit();
 391              		.loc 1 274 0
 392 021c FEFFFFEB 		bl	consolInit
 393              	.LVL20:
 275:framework.c   ****   
 276:framework.c   **** #ifdef CONSOL_STARTUP_DELAY
 277:framework.c   ****   /*
 278:framework.c   ****    * setup timer #1 for a short delay
 279:framework.c   ****    */
 280:framework.c   ****   TIMER1_TCR = 0x02;          //stop and reset timer
 394              		.loc 1 280 0
 395 0220 0220A0E3 		mov	r2, #2
 396 0224 3C309FE5 		ldr	r3, .L37
 397 0228 042083E5 		str	r2, [r3, #4]
 281:framework.c   ****   TIMER1_PR  = 0x00;          //set prescaler to zero
 398              		.loc 1 281 0
 399 022c 0020A0E3 		mov	r2, #0
 400 0230 0C2083E5 		str	r2, [r3, #12]
 282:framework.c   ****   TIMER1_MR0 = CONSOL_STARTUP_DELAY_LENGTH * ((FOSC * PLL_MUL)/ (1000000 * PBSD));
 401              		.loc 1 282 0
 402 0234 30209FE5 		ldr	r2, .L37+4
 403 0238 182083E5 		str	r2, [r3, #24]
 283:framework.c   ****   TIMER1_IR  = 0xff;          //reset all interrrupt flags
 404              		.loc 1 283 0
 405 023c FF20A0E3 		mov	r2, #255
 406 0240 002083E5 		str	r2, [r3]
 284:framework.c   ****   TIMER1_MCR = 0x04;          //stop timer on match
 407              		.loc 1 284 0
 408 0244 0420A0E3 		mov	r2, #4
 409 0248 142083E5 		str	r2, [r3, #20]
 285:framework.c   ****   TIMER1_TCR = 0x01;          //start timer
 410              		.loc 1 285 0
 411 024c 0120A0E3 		mov	r2, #1
 412 0250 042083E5 		str	r2, [r3, #4]
 413              	.L34:
 286:framework.c   ****   
 287:framework.c   ****   //wait until delay time has elapsed
 288:framework.c   ****   while (TIMER1_TCR & 0x01)
 414              		.loc 1 288 0 discriminator 1
 415 0254 042093E5 		ldr	r2, [r3, #4]
 416 0258 010012E3 		tst	r2, #1
 417 025c FCFFFF1A 		bne	.L34
 289:framework.c   ****     ;
 290:framework.c   **** #endif
 291:framework.c   **** }
 418              		.loc 1 291 0
 419 0260 1040BDE8 		ldmfd	sp!, {r4, lr}
 420              	.LCFI6:
 421              		.cfi_restore 14
 422              		.cfi_restore 4
ARM GAS  C:\Users\embedded\AppData\Local\Temp\ccet8OlE.s 			page 14


 423              		.cfi_def_cfa_offset 0
 424 0264 1EFF2FE1 		bx	lr
 425              	.L38:
 426              		.align	2
 427              	.L37:
 428 0268 008000E0 		.word	-536838144
 429 026c 70170000 		.word	6000
 430              		.cfi_endproc
 431              	.LFE7:
 432              		.size	printf_init, .-printf_init
 433              		.comm	pHeapEnd,4,4
 434              		.comm	pHeapStart,4,4
 435              		.section	.rodata.str1.1,"aMS",%progbits,1
 436              	.LC0:
 437 0000 46495120 		.ascii	"FIQ exception !!!\012Address: 0x\000"
 437      65786365 
 437      7074696F 
 437      6E202121 
 437      210A4164 
 438              	.LC1:
 439 001e 4461626F 		.ascii	"Dabort exception !!!\012Address: 0x\000"
 439      72742065 
 439      78636570 
 439      74696F6E 
 439      20212121 
 440              	.LC2:
 441 003f 5061626F 		.ascii	"Pabort exception !!!\012Address: 0x\000"
 441      72742065 
 441      78636570 
 441      74696F6E 
 441      20212121 
 442              	.LC3:
 443 0060 53574920 		.ascii	"SWI exception !!!\012Address: 0x\000"
 443      65786365 
 443      7074696F 
 443      6E202121 
 443      210A4164 
 444              	.LC4:
 445 007e 556E6465 		.ascii	"Undefined instruction exception !!!\012Address: 0x\000"
 445      66696E65 
 445      6420696E 
 445      73747275 
 445      6374696F 
 446              		.text
 447              	.Letext0:
 448              		.file 2 "consol.h"